   1              	 .syntax unified
   2              	 .cpu cortex-m4
   3              	 .eabi_attribute 27,3
   4              	 .fpu fpv4-sp-d16
   5              	 .eabi_attribute 20,1
   6              	 .eabi_attribute 21,1
   7              	 .eabi_attribute 23,3
   8              	 .eabi_attribute 24,1
   9              	 .eabi_attribute 25,1
  10              	 .eabi_attribute 26,1
  11              	 .eabi_attribute 30,6
  12              	 .eabi_attribute 34,1
  13              	 .eabi_attribute 18,4
  14              	 .thumb
  15              	 .file "usbd_endpoint_stream_xmc4000.c"
  16              	 .text
  17              	.Ltext0:
  18              	 .cfi_sections .debug_frame
  19              	 .global zlp_flag
  20              	 .section .bss.zlp_flag,"aw",%nobits
  23              	zlp_flag:
  24 0000 00       	 .space 1
  25              	 .section .text.Endpoint_Write_Stream_LE,"ax",%progbits
  26              	 .align 2
  27              	 .global Endpoint_Write_Stream_LE
  28              	 .thumb
  29              	 .thumb_func
  31              	Endpoint_Write_Stream_LE:
  32              	.LFB170:
  33              	 .file 1 "../Dave/Generated/USBD/usb/core/xmc4000/usbd_endpoint_stream_xmc4000.c"
   1:../Dave/Generated/USBD/usb/core/xmc4000/usbd_endpoint_stream_xmc4000.c **** /**
   2:../Dave/Generated/USBD/usb/core/xmc4000/usbd_endpoint_stream_xmc4000.c ****  * @file usbd_endpoint_stream_xmc4000.c
   3:../Dave/Generated/USBD/usb/core/xmc4000/usbd_endpoint_stream_xmc4000.c ****  * @date 2015-06-20 
   4:../Dave/Generated/USBD/usb/core/xmc4000/usbd_endpoint_stream_xmc4000.c ****  * NOTE:
   5:../Dave/Generated/USBD/usb/core/xmc4000/usbd_endpoint_stream_xmc4000.c ****  * This file is generated by DAVE. Any manual modification done to this file will be lost when the 
   6:../Dave/Generated/USBD/usb/core/xmc4000/usbd_endpoint_stream_xmc4000.c ****  *
   7:../Dave/Generated/USBD/usb/core/xmc4000/usbd_endpoint_stream_xmc4000.c ****  * @cond
   8:../Dave/Generated/USBD/usb/core/xmc4000/usbd_endpoint_stream_xmc4000.c ****  **************************************************************************************************
   9:../Dave/Generated/USBD/usb/core/xmc4000/usbd_endpoint_stream_xmc4000.c ****  * The USB core driver for XMC4000 family of controllers. It does the USB protocol handling.
  10:../Dave/Generated/USBD/usb/core/xmc4000/usbd_endpoint_stream_xmc4000.c ****  *
  11:../Dave/Generated/USBD/usb/core/xmc4000/usbd_endpoint_stream_xmc4000.c ****  * Copyright (c) 2015, Infineon Technologies AG
  12:../Dave/Generated/USBD/usb/core/xmc4000/usbd_endpoint_stream_xmc4000.c ****  * All rights reserved.                        
  13:../Dave/Generated/USBD/usb/core/xmc4000/usbd_endpoint_stream_xmc4000.c ****  *                                             
  14:../Dave/Generated/USBD/usb/core/xmc4000/usbd_endpoint_stream_xmc4000.c ****  * Redistribution and use in source and binary forms, with or without modification,are permitted pr
  15:../Dave/Generated/USBD/usb/core/xmc4000/usbd_endpoint_stream_xmc4000.c ****  * following conditions are met:   
  16:../Dave/Generated/USBD/usb/core/xmc4000/usbd_endpoint_stream_xmc4000.c ****  *                                                                              
  17:../Dave/Generated/USBD/usb/core/xmc4000/usbd_endpoint_stream_xmc4000.c ****  *   Redistributions of source code must retain the above copyright notice, this list of conditions
  18:../Dave/Generated/USBD/usb/core/xmc4000/usbd_endpoint_stream_xmc4000.c ****  *   disclaimer.                        
  19:../Dave/Generated/USBD/usb/core/xmc4000/usbd_endpoint_stream_xmc4000.c ****  * 
  20:../Dave/Generated/USBD/usb/core/xmc4000/usbd_endpoint_stream_xmc4000.c ****  *   Redistributions in binary form must reproduce the above copyright notice, this list of conditi
  21:../Dave/Generated/USBD/usb/core/xmc4000/usbd_endpoint_stream_xmc4000.c ****  *   following disclaimer in the documentation and/or other materials provided with the distributio
  22:../Dave/Generated/USBD/usb/core/xmc4000/usbd_endpoint_stream_xmc4000.c ****  *                         
  23:../Dave/Generated/USBD/usb/core/xmc4000/usbd_endpoint_stream_xmc4000.c ****  *   Neither the name of the copyright holders nor the names of its contributors may be used to end
  24:../Dave/Generated/USBD/usb/core/xmc4000/usbd_endpoint_stream_xmc4000.c ****  *   products derived from this software without specific prior written permission. 
  25:../Dave/Generated/USBD/usb/core/xmc4000/usbd_endpoint_stream_xmc4000.c ****  *                                             
  26:../Dave/Generated/USBD/usb/core/xmc4000/usbd_endpoint_stream_xmc4000.c ****  * THIS SOFTWARE IS PROVIDED BY THE COPYRIGHT HOLDERS AND CONTRIBUTORS "AS IS" AND ANY EXPRESS OR I
  27:../Dave/Generated/USBD/usb/core/xmc4000/usbd_endpoint_stream_xmc4000.c ****  * INCLUDING, BUT NOT LIMITED TO, THE IMPLIED WARRANTIES OF MERCHANTABILITY AND FITNESS FOR A PARTI
  28:../Dave/Generated/USBD/usb/core/xmc4000/usbd_endpoint_stream_xmc4000.c ****  * DISCLAIMED. IN NO EVENT SHALL THE COPYRIGHT HOLDER OR CONTRIBUTORS BE LIABLE  FOR ANY DIRECT, IN
  29:../Dave/Generated/USBD/usb/core/xmc4000/usbd_endpoint_stream_xmc4000.c ****  * SPECIAL, EXEMPLARY, OR CONSEQUENTIAL DAMAGES (INCLUDING, BUT NOT LIMITED TO, PROCUREMENT OF SUBS
  30:../Dave/Generated/USBD/usb/core/xmc4000/usbd_endpoint_stream_xmc4000.c ****  * SERVICES; LOSS OF USE, DATA, OR PROFITS; OR BUSINESS INTERRUPTION) HOWEVER CAUSED AND ON ANY THE
  31:../Dave/Generated/USBD/usb/core/xmc4000/usbd_endpoint_stream_xmc4000.c ****  * WHETHER IN CONTRACT, STRICT LIABILITY,OR TORT (INCLUDING NEGLIGENCE OR OTHERWISE) ARISING IN ANY
  32:../Dave/Generated/USBD/usb/core/xmc4000/usbd_endpoint_stream_xmc4000.c ****  * USE OF THIS SOFTWARE, EVEN IF ADVISED OF THE POSSIBILITY OF SUCH DAMAGE.    
  33:../Dave/Generated/USBD/usb/core/xmc4000/usbd_endpoint_stream_xmc4000.c ****  *                                                                              
  34:../Dave/Generated/USBD/usb/core/xmc4000/usbd_endpoint_stream_xmc4000.c ****  * To improve the quality of the software, users are encouraged to share modifications, enhancement
  35:../Dave/Generated/USBD/usb/core/xmc4000/usbd_endpoint_stream_xmc4000.c ****  * with Infineon Technologies AG (dave@infineon.com).        
  36:../Dave/Generated/USBD/usb/core/xmc4000/usbd_endpoint_stream_xmc4000.c ****  **************************************************************************************************
  37:../Dave/Generated/USBD/usb/core/xmc4000/usbd_endpoint_stream_xmc4000.c ****  *
  38:../Dave/Generated/USBD/usb/core/xmc4000/usbd_endpoint_stream_xmc4000.c ****  * Change History
  39:../Dave/Generated/USBD/usb/core/xmc4000/usbd_endpoint_stream_xmc4000.c ****  * --------------
  40:../Dave/Generated/USBD/usb/core/xmc4000/usbd_endpoint_stream_xmc4000.c ****  *
  41:../Dave/Generated/USBD/usb/core/xmc4000/usbd_endpoint_stream_xmc4000.c ****  * 2015-02-16:
  42:../Dave/Generated/USBD/usb/core/xmc4000/usbd_endpoint_stream_xmc4000.c ****  *     - Initial version.      
  43:../Dave/Generated/USBD/usb/core/xmc4000/usbd_endpoint_stream_xmc4000.c ****  * 2015-06-20:
  44:../Dave/Generated/USBD/usb/core/xmc4000/usbd_endpoint_stream_xmc4000.c ****  *     - Updated the file header.
  45:../Dave/Generated/USBD/usb/core/xmc4000/usbd_endpoint_stream_xmc4000.c ****  *     
  46:../Dave/Generated/USBD/usb/core/xmc4000/usbd_endpoint_stream_xmc4000.c ****  * @endcond 
  47:../Dave/Generated/USBD/usb/core/xmc4000/usbd_endpoint_stream_xmc4000.c ****  *
  48:../Dave/Generated/USBD/usb/core/xmc4000/usbd_endpoint_stream_xmc4000.c ****  */
  49:../Dave/Generated/USBD/usb/core/xmc4000/usbd_endpoint_stream_xmc4000.c **** /*
  50:../Dave/Generated/USBD/usb/core/xmc4000/usbd_endpoint_stream_xmc4000.c ****   Copyright 2014  Dean Camera (dean [at] fourwalledcubicle [dot] com)
  51:../Dave/Generated/USBD/usb/core/xmc4000/usbd_endpoint_stream_xmc4000.c **** 
  52:../Dave/Generated/USBD/usb/core/xmc4000/usbd_endpoint_stream_xmc4000.c ****   Permission to use, copy, modify, distribute, and sell this
  53:../Dave/Generated/USBD/usb/core/xmc4000/usbd_endpoint_stream_xmc4000.c ****   software and its documentation for any purpose is hereby granted
  54:../Dave/Generated/USBD/usb/core/xmc4000/usbd_endpoint_stream_xmc4000.c ****   without fee, provided that the above copyright notice appear in
  55:../Dave/Generated/USBD/usb/core/xmc4000/usbd_endpoint_stream_xmc4000.c ****   all copies and that both that the copyright notice and this
  56:../Dave/Generated/USBD/usb/core/xmc4000/usbd_endpoint_stream_xmc4000.c ****   permission notice and warranty disclaimer appear in supporting
  57:../Dave/Generated/USBD/usb/core/xmc4000/usbd_endpoint_stream_xmc4000.c ****   documentation, and that the name of the author not be used in
  58:../Dave/Generated/USBD/usb/core/xmc4000/usbd_endpoint_stream_xmc4000.c ****   advertising or publicity pertaining to distribution of the
  59:../Dave/Generated/USBD/usb/core/xmc4000/usbd_endpoint_stream_xmc4000.c ****   software without specific, written prior permission.
  60:../Dave/Generated/USBD/usb/core/xmc4000/usbd_endpoint_stream_xmc4000.c **** 
  61:../Dave/Generated/USBD/usb/core/xmc4000/usbd_endpoint_stream_xmc4000.c ****   The author disclaims all warranties with regard to this
  62:../Dave/Generated/USBD/usb/core/xmc4000/usbd_endpoint_stream_xmc4000.c ****   software, including all implied warranties of merchantability
  63:../Dave/Generated/USBD/usb/core/xmc4000/usbd_endpoint_stream_xmc4000.c ****   and fitness.  In no event shall the author be liable for any
  64:../Dave/Generated/USBD/usb/core/xmc4000/usbd_endpoint_stream_xmc4000.c ****   special, indirect or consequential damages or any damages
  65:../Dave/Generated/USBD/usb/core/xmc4000/usbd_endpoint_stream_xmc4000.c ****   whatsoever resulting from loss of use, data or profits, whether
  66:../Dave/Generated/USBD/usb/core/xmc4000/usbd_endpoint_stream_xmc4000.c ****   in an action of contract, negligence or other tortious action,
  67:../Dave/Generated/USBD/usb/core/xmc4000/usbd_endpoint_stream_xmc4000.c ****   arising out of or in connection with the use or performance of
  68:../Dave/Generated/USBD/usb/core/xmc4000/usbd_endpoint_stream_xmc4000.c ****   this software.
  69:../Dave/Generated/USBD/usb/core/xmc4000/usbd_endpoint_stream_xmc4000.c **** */
  70:../Dave/Generated/USBD/usb/core/xmc4000/usbd_endpoint_stream_xmc4000.c **** 
  71:../Dave/Generated/USBD/usb/core/xmc4000/usbd_endpoint_stream_xmc4000.c **** #include "../../../usbd.h"
  72:../Dave/Generated/USBD/usb/core/xmc4000/usbd_endpoint_stream_xmc4000.c **** #include "usbd_endpoint_stream_xmc4000.h"
  73:../Dave/Generated/USBD/usb/core/xmc4000/usbd_endpoint_stream_xmc4000.c **** #include "../endpoint_stream.h"
  74:../Dave/Generated/USBD/usb/core/xmc4000/usbd_endpoint_stream_xmc4000.c **** #include "../endpoint.h"
  75:../Dave/Generated/USBD/usb/core/xmc4000/usbd_endpoint_stream_xmc4000.c **** 
  76:../Dave/Generated/USBD/usb/core/xmc4000/usbd_endpoint_stream_xmc4000.c **** /*Flag to indicate the zlp to be sent or not*/
  77:../Dave/Generated/USBD/usb/core/xmc4000/usbd_endpoint_stream_xmc4000.c **** volatile uint8_t zlp_flag = 0;
  78:../Dave/Generated/USBD/usb/core/xmc4000/usbd_endpoint_stream_xmc4000.c **** 
  79:../Dave/Generated/USBD/usb/core/xmc4000/usbd_endpoint_stream_xmc4000.c **** uint8_t Endpoint_Write_Stream_LE (const void *const Buffer, uint16_t Length,
  80:../Dave/Generated/USBD/usb/core/xmc4000/usbd_endpoint_stream_xmc4000.c **** 											uint16_t *const BytesProcessed)
  81:../Dave/Generated/USBD/usb/core/xmc4000/usbd_endpoint_stream_xmc4000.c **** {
  34              	 .loc 1 81 0
  35              	 .cfi_startproc
  36              	 
  37              	 
  38 0000 80B5     	 push {r7,lr}
  39              	.LCFI0:
  40              	 .cfi_def_cfa_offset 8
  41              	 .cfi_offset 7,-8
  42              	 .cfi_offset 14,-4
  43 0002 88B0     	 sub sp,sp,#32
  44              	.LCFI1:
  45              	 .cfi_def_cfa_offset 40
  46 0004 00AF     	 add r7,sp,#0
  47              	.LCFI2:
  48              	 .cfi_def_cfa_register 7
  49 0006 F860     	 str r0,[r7,#12]
  50 0008 0B46     	 mov r3,r1
  51 000a 7A60     	 str r2,[r7,#4]
  52 000c 7B81     	 strh r3,[r7,#10]
  82:../Dave/Generated/USBD/usb/core/xmc4000/usbd_endpoint_stream_xmc4000.c **** 	USBD_Endpoint_t* ep = &device.Endpoints[device.CurrentEndpoint];
  53              	 .loc 1 82 0
  54 000e 3E4B     	 ldr r3,.L11
  55 0010 93F83C31 	 ldrb r3,[r3,#316]
  56 0014 1A46     	 mov r2,r3
  57 0016 2C23     	 movs r3,#44
  58 0018 03FB02F3 	 mul r3,r3,r2
  59 001c 3A4A     	 ldr r2,.L11
  60 001e 1344     	 add r3,r3,r2
  61 0020 0433     	 adds r3,r3,#4
  62 0022 BB61     	 str r3,[r7,#24]
  83:../Dave/Generated/USBD/usb/core/xmc4000/usbd_endpoint_stream_xmc4000.c **** 	uint16_t Bytes = 0;
  63              	 .loc 1 83 0
  64 0024 0023     	 movs r3,#0
  65 0026 FB83     	 strh r3,[r7,#30]
  84:../Dave/Generated/USBD/usb/core/xmc4000/usbd_endpoint_stream_xmc4000.c **** 	uint16_t BytesTransfered = 0;
  66              	 .loc 1 84 0
  67 0028 0023     	 movs r3,#0
  68 002a BB83     	 strh r3,[r7,#28]
  85:../Dave/Generated/USBD/usb/core/xmc4000/usbd_endpoint_stream_xmc4000.c **** 	uint8_t ErrorCode;
  86:../Dave/Generated/USBD/usb/core/xmc4000/usbd_endpoint_stream_xmc4000.c **** 
  87:../Dave/Generated/USBD/usb/core/xmc4000/usbd_endpoint_stream_xmc4000.c **** 	if (BytesProcessed!=NULL) 
  69              	 .loc 1 87 0
  70 002c 7B68     	 ldr r3,[r7,#4]
  71 002e 002B     	 cmp r3,#0
  72 0030 07D0     	 beq .L2
  88:../Dave/Generated/USBD/usb/core/xmc4000/usbd_endpoint_stream_xmc4000.c **** 	{
  89:../Dave/Generated/USBD/usb/core/xmc4000/usbd_endpoint_stream_xmc4000.c **** 		Length -= *BytesProcessed;
  73              	 .loc 1 89 0
  74 0032 7B68     	 ldr r3,[r7,#4]
  75 0034 1B88     	 ldrh r3,[r3]
  76 0036 7A89     	 ldrh r2,[r7,#10]
  77 0038 D31A     	 subs r3,r2,r3
  78 003a 7B81     	 strh r3,[r7,#10]
  90:../Dave/Generated/USBD/usb/core/xmc4000/usbd_endpoint_stream_xmc4000.c **** 		BytesTransfered = *BytesProcessed;
  79              	 .loc 1 90 0
  80 003c 7B68     	 ldr r3,[r7,#4]
  81 003e 1B88     	 ldrh r3,[r3]
  82 0040 BB83     	 strh r3,[r7,#28]
  83              	.L2:
  91:../Dave/Generated/USBD/usb/core/xmc4000/usbd_endpoint_stream_xmc4000.c **** 	}
  92:../Dave/Generated/USBD/usb/core/xmc4000/usbd_endpoint_stream_xmc4000.c **** 
  93:../Dave/Generated/USBD/usb/core/xmc4000/usbd_endpoint_stream_xmc4000.c **** 	while (Length) 
  84              	 .loc 1 93 0
  85 0042 58E0     	 b .L3
  86              	.L10:
  94:../Dave/Generated/USBD/usb/core/xmc4000/usbd_endpoint_stream_xmc4000.c **** 	{
  95:../Dave/Generated/USBD/usb/core/xmc4000/usbd_endpoint_stream_xmc4000.c **** 		if (ep->InInUse)
  87              	 .loc 1 95 0
  88 0044 BB69     	 ldr r3,[r7,#24]
  89 0046 5B68     	 ldr r3,[r3,#4]
  90 0048 1B09     	 lsrs r3,r3,#4
  91 004a 03F00103 	 and r3,r3,#1
  92 004e DBB2     	 uxtb r3,r3
  93 0050 002B     	 cmp r3,#0
  94 0052 00D0     	 beq .L4
  96:../Dave/Generated/USBD/usb/core/xmc4000/usbd_endpoint_stream_xmc4000.c **** 		{
  97:../Dave/Generated/USBD/usb/core/xmc4000/usbd_endpoint_stream_xmc4000.c **** 			continue;
  95              	 .loc 1 97 0
  96 0054 4FE0     	 b .L3
  97              	.L4:
  98:../Dave/Generated/USBD/usb/core/xmc4000/usbd_endpoint_stream_xmc4000.c **** 		}
  99:../Dave/Generated/USBD/usb/core/xmc4000/usbd_endpoint_stream_xmc4000.c **** 		if (Endpoint_IsReadWriteAllowed()) 
  98              	 .loc 1 99 0
  99 0056 FFF7FEFF 	 bl Endpoint_IsReadWriteAllowed
 100 005a 0346     	 mov r3,r0
 101 005c 002B     	 cmp r3,#0
 102 005e 2FD0     	 beq .L5
 100:../Dave/Generated/USBD/usb/core/xmc4000/usbd_endpoint_stream_xmc4000.c **** 		{
 101:../Dave/Generated/USBD/usb/core/xmc4000/usbd_endpoint_stream_xmc4000.c **** 			if((ep->InBufferLength - ep->InBytesAvailable)  > Length)
 103              	 .loc 1 101 0
 104 0060 BB69     	 ldr r3,[r7,#24]
 105 0062 1A6A     	 ldr r2,[r3,#32]
 106 0064 BB69     	 ldr r3,[r7,#24]
 107 0066 9B69     	 ldr r3,[r3,#24]
 108 0068 D21A     	 subs r2,r2,r3
 109 006a 7B89     	 ldrh r3,[r7,#10]
 110 006c 9A42     	 cmp r2,r3
 111 006e 02D9     	 bls .L6
 102:../Dave/Generated/USBD/usb/core/xmc4000/usbd_endpoint_stream_xmc4000.c **** 			{
 103:../Dave/Generated/USBD/usb/core/xmc4000/usbd_endpoint_stream_xmc4000.c **** 				Bytes = Length;
 112              	 .loc 1 103 0
 113 0070 7B89     	 ldrh r3,[r7,#10]
 114 0072 FB83     	 strh r3,[r7,#30]
 115 0074 07E0     	 b .L7
 116              	.L6:
 104:../Dave/Generated/USBD/usb/core/xmc4000/usbd_endpoint_stream_xmc4000.c **** 			}
 105:../Dave/Generated/USBD/usb/core/xmc4000/usbd_endpoint_stream_xmc4000.c **** 			else
 106:../Dave/Generated/USBD/usb/core/xmc4000/usbd_endpoint_stream_xmc4000.c **** 			{
 107:../Dave/Generated/USBD/usb/core/xmc4000/usbd_endpoint_stream_xmc4000.c **** 				Bytes = (ep->InBufferLength - ep->InBytesAvailable);
 117              	 .loc 1 107 0
 118 0076 BB69     	 ldr r3,[r7,#24]
 119 0078 1B6A     	 ldr r3,[r3,#32]
 120 007a 9AB2     	 uxth r2,r3
 121 007c BB69     	 ldr r3,[r7,#24]
 122 007e 9B69     	 ldr r3,[r3,#24]
 123 0080 9BB2     	 uxth r3,r3
 124 0082 D31A     	 subs r3,r2,r3
 125 0084 FB83     	 strh r3,[r7,#30]
 126              	.L7:
 108:../Dave/Generated/USBD/usb/core/xmc4000/usbd_endpoint_stream_xmc4000.c **** 			}
 109:../Dave/Generated/USBD/usb/core/xmc4000/usbd_endpoint_stream_xmc4000.c **** 			memcpy(ep->InBuffer + ep->InBytesAvailable,(uint8_t*)Buffer + BytesTransfered,Bytes);
 127              	 .loc 1 109 0
 128 0086 BB69     	 ldr r3,[r7,#24]
 129 0088 DA69     	 ldr r2,[r3,#28]
 130 008a BB69     	 ldr r3,[r7,#24]
 131 008c 9B69     	 ldr r3,[r3,#24]
 132 008e D118     	 adds r1,r2,r3
 133 0090 BB8B     	 ldrh r3,[r7,#28]
 134 0092 FA68     	 ldr r2,[r7,#12]
 135 0094 1A44     	 add r2,r2,r3
 136 0096 FB8B     	 ldrh r3,[r7,#30]
 137 0098 0846     	 mov r0,r1
 138 009a 1146     	 mov r1,r2
 139 009c 1A46     	 mov r2,r3
 140 009e FFF7FEFF 	 bl memcpy
 110:../Dave/Generated/USBD/usb/core/xmc4000/usbd_endpoint_stream_xmc4000.c **** 			ep->InBytesAvailable += Bytes;
 141              	 .loc 1 110 0
 142 00a2 BB69     	 ldr r3,[r7,#24]
 143 00a4 9A69     	 ldr r2,[r3,#24]
 144 00a6 FB8B     	 ldrh r3,[r7,#30]
 145 00a8 1A44     	 add r2,r2,r3
 146 00aa BB69     	 ldr r3,[r7,#24]
 147 00ac 9A61     	 str r2,[r3,#24]
 111:../Dave/Generated/USBD/usb/core/xmc4000/usbd_endpoint_stream_xmc4000.c **** 			BytesTransfered += Bytes;
 148              	 .loc 1 111 0
 149 00ae BA8B     	 ldrh r2,[r7,#28]
 150 00b0 FB8B     	 ldrh r3,[r7,#30]
 151 00b2 1344     	 add r3,r3,r2
 152 00b4 BB83     	 strh r3,[r7,#28]
 112:../Dave/Generated/USBD/usb/core/xmc4000/usbd_endpoint_stream_xmc4000.c **** 			Length -= Bytes;
 153              	 .loc 1 112 0
 154 00b6 7A89     	 ldrh r2,[r7,#10]
 155 00b8 FB8B     	 ldrh r3,[r7,#30]
 156 00ba D31A     	 subs r3,r2,r3
 157 00bc 7B81     	 strh r3,[r7,#10]
 158 00be 1AE0     	 b .L3
 159              	.L5:
 113:../Dave/Generated/USBD/usb/core/xmc4000/usbd_endpoint_stream_xmc4000.c **** 		}
 114:../Dave/Generated/USBD/usb/core/xmc4000/usbd_endpoint_stream_xmc4000.c **** 		else 
 115:../Dave/Generated/USBD/usb/core/xmc4000/usbd_endpoint_stream_xmc4000.c **** 		{
 116:../Dave/Generated/USBD/usb/core/xmc4000/usbd_endpoint_stream_xmc4000.c **** 			Endpoint_ClearIN();
 160              	 .loc 1 116 0
 161 00c0 FFF7FEFF 	 bl Endpoint_ClearIN
 117:../Dave/Generated/USBD/usb/core/xmc4000/usbd_endpoint_stream_xmc4000.c **** 			if(Length < ep->MaxPacketSize)
 162              	 .loc 1 117 0
 163 00c4 7B89     	 ldrh r3,[r7,#10]
 164 00c6 BA69     	 ldr r2,[r7,#24]
 165 00c8 9288     	 ldrh r2,[r2,#4]
 166 00ca C2F38612 	 ubfx r2,r2,#6,#7
 167 00ce D2B2     	 uxtb r2,r2
 168 00d0 9342     	 cmp r3,r2
 169 00d2 07DA     	 bge .L8
 118:../Dave/Generated/USBD/usb/core/xmc4000/usbd_endpoint_stream_xmc4000.c **** 			{
 119:../Dave/Generated/USBD/usb/core/xmc4000/usbd_endpoint_stream_xmc4000.c **** 				if (BytesProcessed!=NULL) 
 170              	 .loc 1 119 0
 171 00d4 7B68     	 ldr r3,[r7,#4]
 172 00d6 002B     	 cmp r3,#0
 173 00d8 04D0     	 beq .L8
 120:../Dave/Generated/USBD/usb/core/xmc4000/usbd_endpoint_stream_xmc4000.c **** 				{
 121:../Dave/Generated/USBD/usb/core/xmc4000/usbd_endpoint_stream_xmc4000.c **** 					*BytesProcessed = BytesTransfered;
 174              	 .loc 1 121 0
 175 00da 7B68     	 ldr r3,[r7,#4]
 176 00dc BA8B     	 ldrh r2,[r7,#28]
 177 00de 1A80     	 strh r2,[r3]
 122:../Dave/Generated/USBD/usb/core/xmc4000/usbd_endpoint_stream_xmc4000.c **** 					return ENDPOINT_RWSTREAM_IncompleteTransfer;
 178              	 .loc 1 122 0
 179 00e0 0523     	 movs r3,#5
 180 00e2 0CE0     	 b .L9
 181              	.L8:
 123:../Dave/Generated/USBD/usb/core/xmc4000/usbd_endpoint_stream_xmc4000.c **** 				}
 124:../Dave/Generated/USBD/usb/core/xmc4000/usbd_endpoint_stream_xmc4000.c **** 			}
 125:../Dave/Generated/USBD/usb/core/xmc4000/usbd_endpoint_stream_xmc4000.c **** 
 126:../Dave/Generated/USBD/usb/core/xmc4000/usbd_endpoint_stream_xmc4000.c **** 			ErrorCode = Endpoint_WaitUntilReady();
 182              	 .loc 1 126 0
 183 00e4 FFF7FEFF 	 bl Endpoint_WaitUntilReady
 184 00e8 0346     	 mov r3,r0
 185 00ea FB75     	 strb r3,[r7,#23]
 127:../Dave/Generated/USBD/usb/core/xmc4000/usbd_endpoint_stream_xmc4000.c **** 			if (ErrorCode) 
 186              	 .loc 1 127 0
 187 00ec FB7D     	 ldrb r3,[r7,#23]
 188 00ee 002B     	 cmp r3,#0
 189 00f0 01D0     	 beq .L3
 128:../Dave/Generated/USBD/usb/core/xmc4000/usbd_endpoint_stream_xmc4000.c **** 			{
 129:../Dave/Generated/USBD/usb/core/xmc4000/usbd_endpoint_stream_xmc4000.c **** 				return ErrorCode;
 190              	 .loc 1 129 0
 191 00f2 FB7D     	 ldrb r3,[r7,#23]
 192 00f4 03E0     	 b .L9
 193              	.L3:
  93:../Dave/Generated/USBD/usb/core/xmc4000/usbd_endpoint_stream_xmc4000.c **** 	{
 194              	 .loc 1 93 0
 195 00f6 7B89     	 ldrh r3,[r7,#10]
 196 00f8 002B     	 cmp r3,#0
 197 00fa A3D1     	 bne .L10
 130:../Dave/Generated/USBD/usb/core/xmc4000/usbd_endpoint_stream_xmc4000.c **** 			}
 131:../Dave/Generated/USBD/usb/core/xmc4000/usbd_endpoint_stream_xmc4000.c **** 		}
 132:../Dave/Generated/USBD/usb/core/xmc4000/usbd_endpoint_stream_xmc4000.c **** 	}
 133:../Dave/Generated/USBD/usb/core/xmc4000/usbd_endpoint_stream_xmc4000.c **** 	
 134:../Dave/Generated/USBD/usb/core/xmc4000/usbd_endpoint_stream_xmc4000.c **** 	return ENDPOINT_RWSTREAM_NoError;
 198              	 .loc 1 134 0
 199 00fc 0023     	 movs r3,#0
 200              	.L9:
 135:../Dave/Generated/USBD/usb/core/xmc4000/usbd_endpoint_stream_xmc4000.c **** }
 201              	 .loc 1 135 0
 202 00fe 1846     	 mov r0,r3
 203 0100 2037     	 adds r7,r7,#32
 204              	.LCFI3:
 205              	 .cfi_def_cfa_offset 8
 206 0102 BD46     	 mov sp,r7
 207              	.LCFI4:
 208              	 .cfi_def_cfa_register 13
 209              	 
 210 0104 80BD     	 pop {r7,pc}
 211              	.L12:
 212 0106 00BF     	 .align 2
 213              	.L11:
 214 0108 00000000 	 .word device
 215              	 .cfi_endproc
 216              	.LFE170:
 218              	 .section .text.SwapCopy,"ax",%progbits
 219              	 .align 2
 220              	 .global SwapCopy
 221              	 .thumb
 222              	 .thumb_func
 224              	SwapCopy:
 225              	.LFB171:
 136:../Dave/Generated/USBD/usb/core/xmc4000/usbd_endpoint_stream_xmc4000.c **** 
 137:../Dave/Generated/USBD/usb/core/xmc4000/usbd_endpoint_stream_xmc4000.c **** void SwapCopy(void *const Dest, const void *const Src,uint32_t Length) 
 138:../Dave/Generated/USBD/usb/core/xmc4000/usbd_endpoint_stream_xmc4000.c **** {
 226              	 .loc 1 138 0
 227              	 .cfi_startproc
 228              	 
 229              	 
 230              	 
 231 0000 80B4     	 push {r7}
 232              	.LCFI5:
 233              	 .cfi_def_cfa_offset 4
 234              	 .cfi_offset 7,-4
 235 0002 87B0     	 sub sp,sp,#28
 236              	.LCFI6:
 237              	 .cfi_def_cfa_offset 32
 238 0004 00AF     	 add r7,sp,#0
 239              	.LCFI7:
 240              	 .cfi_def_cfa_register 7
 241 0006 F860     	 str r0,[r7,#12]
 242 0008 B960     	 str r1,[r7,#8]
 243 000a 7A60     	 str r2,[r7,#4]
 139:../Dave/Generated/USBD/usb/core/xmc4000/usbd_endpoint_stream_xmc4000.c **** 	uint32_t i = 0;
 244              	 .loc 1 139 0
 245 000c 0023     	 movs r3,#0
 246 000e 7B61     	 str r3,[r7,#20]
 140:../Dave/Generated/USBD/usb/core/xmc4000/usbd_endpoint_stream_xmc4000.c **** 	while(i<Length) {
 247              	 .loc 1 140 0
 248 0010 0DE0     	 b .L14
 249              	.L15:
 141:../Dave/Generated/USBD/usb/core/xmc4000/usbd_endpoint_stream_xmc4000.c **** 		*(uint8_t*)((uint8_t*)Dest + (Length - 1 - i)) =
 250              	 .loc 1 141 0
 251 0012 7A68     	 ldr r2,[r7,#4]
 252 0014 7B69     	 ldr r3,[r7,#20]
 253 0016 D31A     	 subs r3,r2,r3
 254 0018 013B     	 subs r3,r3,#1
 255 001a FA68     	 ldr r2,[r7,#12]
 256 001c 1344     	 add r3,r3,r2
 142:../Dave/Generated/USBD/usb/core/xmc4000/usbd_endpoint_stream_xmc4000.c **** 											*(uint8_t*)((uint8_t*)Src + i);
 257              	 .loc 1 142 0
 258 001e B968     	 ldr r1,[r7,#8]
 259 0020 7A69     	 ldr r2,[r7,#20]
 260 0022 0A44     	 add r2,r2,r1
 261 0024 1278     	 ldrb r2,[r2]
 141:../Dave/Generated/USBD/usb/core/xmc4000/usbd_endpoint_stream_xmc4000.c **** 		*(uint8_t*)((uint8_t*)Dest + (Length - 1 - i)) =
 262              	 .loc 1 141 0
 263 0026 1A70     	 strb r2,[r3]
 143:../Dave/Generated/USBD/usb/core/xmc4000/usbd_endpoint_stream_xmc4000.c **** 		i++;
 264              	 .loc 1 143 0
 265 0028 7B69     	 ldr r3,[r7,#20]
 266 002a 0133     	 adds r3,r3,#1
 267 002c 7B61     	 str r3,[r7,#20]
 268              	.L14:
 140:../Dave/Generated/USBD/usb/core/xmc4000/usbd_endpoint_stream_xmc4000.c **** 		*(uint8_t*)((uint8_t*)Dest + (Length - 1 - i)) =
 269              	 .loc 1 140 0
 270 002e 7A69     	 ldr r2,[r7,#20]
 271 0030 7B68     	 ldr r3,[r7,#4]
 272 0032 9A42     	 cmp r2,r3
 273 0034 EDD3     	 bcc .L15
 144:../Dave/Generated/USBD/usb/core/xmc4000/usbd_endpoint_stream_xmc4000.c **** 	}
 145:../Dave/Generated/USBD/usb/core/xmc4000/usbd_endpoint_stream_xmc4000.c **** }
 274              	 .loc 1 145 0
 275 0036 1C37     	 adds r7,r7,#28
 276              	.LCFI8:
 277              	 .cfi_def_cfa_offset 4
 278 0038 BD46     	 mov sp,r7
 279              	.LCFI9:
 280              	 .cfi_def_cfa_register 13
 281              	 
 282 003a 5DF8047B 	 ldr r7,[sp],#4
 283              	.LCFI10:
 284              	 .cfi_restore 7
 285              	 .cfi_def_cfa_offset 0
 286 003e 7047     	 bx lr
 287              	 .cfi_endproc
 288              	.LFE171:
 290              	 .section .text.Endpoint_Write_Stream_BE,"ax",%progbits
 291              	 .align 2
 292              	 .global Endpoint_Write_Stream_BE
 293              	 .thumb
 294              	 .thumb_func
 296              	Endpoint_Write_Stream_BE:
 297              	.LFB172:
 146:../Dave/Generated/USBD/usb/core/xmc4000/usbd_endpoint_stream_xmc4000.c **** uint8_t	Endpoint_Write_Stream_BE (const void *const Buffer, uint16_t Length,
 147:../Dave/Generated/USBD/usb/core/xmc4000/usbd_endpoint_stream_xmc4000.c **** 											uint16_t *const BytesProcessed)
 148:../Dave/Generated/USBD/usb/core/xmc4000/usbd_endpoint_stream_xmc4000.c **** {
 298              	 .loc 1 148 0
 299              	 .cfi_startproc
 300              	 
 301              	 
 302 0000 80B5     	 push {r7,lr}
 303              	.LCFI11:
 304              	 .cfi_def_cfa_offset 8
 305              	 .cfi_offset 7,-8
 306              	 .cfi_offset 14,-4
 307 0002 88B0     	 sub sp,sp,#32
 308              	.LCFI12:
 309              	 .cfi_def_cfa_offset 40
 310 0004 00AF     	 add r7,sp,#0
 311              	.LCFI13:
 312              	 .cfi_def_cfa_register 7
 313 0006 F860     	 str r0,[r7,#12]
 314 0008 0B46     	 mov r3,r1
 315 000a 7A60     	 str r2,[r7,#4]
 316 000c 7B81     	 strh r3,[r7,#10]
 149:../Dave/Generated/USBD/usb/core/xmc4000/usbd_endpoint_stream_xmc4000.c **** 	USBD_Endpoint_t* ep = &device.Endpoints[device.CurrentEndpoint];
 317              	 .loc 1 149 0
 318 000e 3A4B     	 ldr r3,.L26
 319 0010 93F83C31 	 ldrb r3,[r3,#316]
 320 0014 1A46     	 mov r2,r3
 321 0016 2C23     	 movs r3,#44
 322 0018 03FB02F3 	 mul r3,r3,r2
 323 001c 364A     	 ldr r2,.L26
 324 001e 1344     	 add r3,r3,r2
 325 0020 0433     	 adds r3,r3,#4
 326 0022 BB61     	 str r3,[r7,#24]
 150:../Dave/Generated/USBD/usb/core/xmc4000/usbd_endpoint_stream_xmc4000.c **** 	uint16_t Bytes = 0;
 327              	 .loc 1 150 0
 328 0024 0023     	 movs r3,#0
 329 0026 FB83     	 strh r3,[r7,#30]
 151:../Dave/Generated/USBD/usb/core/xmc4000/usbd_endpoint_stream_xmc4000.c **** 	uint16_t BytesTransfered = 0;
 330              	 .loc 1 151 0
 331 0028 0023     	 movs r3,#0
 332 002a BB83     	 strh r3,[r7,#28]
 152:../Dave/Generated/USBD/usb/core/xmc4000/usbd_endpoint_stream_xmc4000.c **** 	uint8_t ErrorCode;
 153:../Dave/Generated/USBD/usb/core/xmc4000/usbd_endpoint_stream_xmc4000.c **** 
 154:../Dave/Generated/USBD/usb/core/xmc4000/usbd_endpoint_stream_xmc4000.c **** 	if (BytesProcessed!=NULL) 
 333              	 .loc 1 154 0
 334 002c 7B68     	 ldr r3,[r7,#4]
 335 002e 002B     	 cmp r3,#0
 336 0030 07D0     	 beq .L17
 155:../Dave/Generated/USBD/usb/core/xmc4000/usbd_endpoint_stream_xmc4000.c **** 	{
 156:../Dave/Generated/USBD/usb/core/xmc4000/usbd_endpoint_stream_xmc4000.c **** 		Length -= *BytesProcessed;
 337              	 .loc 1 156 0
 338 0032 7B68     	 ldr r3,[r7,#4]
 339 0034 1B88     	 ldrh r3,[r3]
 340 0036 7A89     	 ldrh r2,[r7,#10]
 341 0038 D31A     	 subs r3,r2,r3
 342 003a 7B81     	 strh r3,[r7,#10]
 157:../Dave/Generated/USBD/usb/core/xmc4000/usbd_endpoint_stream_xmc4000.c **** 		BytesTransfered = *BytesProcessed;
 343              	 .loc 1 157 0
 344 003c 7B68     	 ldr r3,[r7,#4]
 345 003e 1B88     	 ldrh r3,[r3]
 346 0040 BB83     	 strh r3,[r7,#28]
 347              	.L17:
 158:../Dave/Generated/USBD/usb/core/xmc4000/usbd_endpoint_stream_xmc4000.c **** 	}
 159:../Dave/Generated/USBD/usb/core/xmc4000/usbd_endpoint_stream_xmc4000.c **** 
 160:../Dave/Generated/USBD/usb/core/xmc4000/usbd_endpoint_stream_xmc4000.c **** 	while (Length) 
 348              	 .loc 1 160 0
 349 0042 50E0     	 b .L18
 350              	.L25:
 161:../Dave/Generated/USBD/usb/core/xmc4000/usbd_endpoint_stream_xmc4000.c **** 	{
 162:../Dave/Generated/USBD/usb/core/xmc4000/usbd_endpoint_stream_xmc4000.c **** 		if (ep->InInUse)
 351              	 .loc 1 162 0
 352 0044 BB69     	 ldr r3,[r7,#24]
 353 0046 5B68     	 ldr r3,[r3,#4]
 354 0048 1B09     	 lsrs r3,r3,#4
 355 004a 03F00103 	 and r3,r3,#1
 356 004e DBB2     	 uxtb r3,r3
 357 0050 002B     	 cmp r3,#0
 358 0052 00D0     	 beq .L19
 163:../Dave/Generated/USBD/usb/core/xmc4000/usbd_endpoint_stream_xmc4000.c **** 		{
 164:../Dave/Generated/USBD/usb/core/xmc4000/usbd_endpoint_stream_xmc4000.c **** 			continue;
 359              	 .loc 1 164 0
 360 0054 47E0     	 b .L18
 361              	.L19:
 165:../Dave/Generated/USBD/usb/core/xmc4000/usbd_endpoint_stream_xmc4000.c **** 		}
 166:../Dave/Generated/USBD/usb/core/xmc4000/usbd_endpoint_stream_xmc4000.c **** 		if (Endpoint_IsReadWriteAllowed()) 
 362              	 .loc 1 166 0
 363 0056 FFF7FEFF 	 bl Endpoint_IsReadWriteAllowed
 364 005a 0346     	 mov r3,r0
 365 005c 002B     	 cmp r3,#0
 366 005e 2FD0     	 beq .L20
 167:../Dave/Generated/USBD/usb/core/xmc4000/usbd_endpoint_stream_xmc4000.c **** 		{
 168:../Dave/Generated/USBD/usb/core/xmc4000/usbd_endpoint_stream_xmc4000.c **** 			if((ep->InBufferLength - ep->InBytesAvailable)  > Length)
 367              	 .loc 1 168 0
 368 0060 BB69     	 ldr r3,[r7,#24]
 369 0062 1A6A     	 ldr r2,[r3,#32]
 370 0064 BB69     	 ldr r3,[r7,#24]
 371 0066 9B69     	 ldr r3,[r3,#24]
 372 0068 D21A     	 subs r2,r2,r3
 373 006a 7B89     	 ldrh r3,[r7,#10]
 374 006c 9A42     	 cmp r2,r3
 375 006e 02D9     	 bls .L21
 169:../Dave/Generated/USBD/usb/core/xmc4000/usbd_endpoint_stream_xmc4000.c **** 			{
 170:../Dave/Generated/USBD/usb/core/xmc4000/usbd_endpoint_stream_xmc4000.c **** 				Bytes = Length;
 376              	 .loc 1 170 0
 377 0070 7B89     	 ldrh r3,[r7,#10]
 378 0072 FB83     	 strh r3,[r7,#30]
 379 0074 07E0     	 b .L22
 380              	.L21:
 171:../Dave/Generated/USBD/usb/core/xmc4000/usbd_endpoint_stream_xmc4000.c **** 			}
 172:../Dave/Generated/USBD/usb/core/xmc4000/usbd_endpoint_stream_xmc4000.c **** 			else
 173:../Dave/Generated/USBD/usb/core/xmc4000/usbd_endpoint_stream_xmc4000.c **** 			{
 174:../Dave/Generated/USBD/usb/core/xmc4000/usbd_endpoint_stream_xmc4000.c **** 				Bytes = (ep->InBufferLength - ep->InBytesAvailable);
 381              	 .loc 1 174 0
 382 0076 BB69     	 ldr r3,[r7,#24]
 383 0078 1B6A     	 ldr r3,[r3,#32]
 384 007a 9AB2     	 uxth r2,r3
 385 007c BB69     	 ldr r3,[r7,#24]
 386 007e 9B69     	 ldr r3,[r3,#24]
 387 0080 9BB2     	 uxth r3,r3
 388 0082 D31A     	 subs r3,r2,r3
 389 0084 FB83     	 strh r3,[r7,#30]
 390              	.L22:
 175:../Dave/Generated/USBD/usb/core/xmc4000/usbd_endpoint_stream_xmc4000.c **** 			}
 176:../Dave/Generated/USBD/usb/core/xmc4000/usbd_endpoint_stream_xmc4000.c **** 
 177:../Dave/Generated/USBD/usb/core/xmc4000/usbd_endpoint_stream_xmc4000.c **** 			SwapCopy(ep->InBuffer + ep->InBytesAvailable,
 391              	 .loc 1 177 0
 392 0086 BB69     	 ldr r3,[r7,#24]
 393 0088 DA69     	 ldr r2,[r3,#28]
 394 008a BB69     	 ldr r3,[r7,#24]
 395 008c 9B69     	 ldr r3,[r3,#24]
 396 008e D118     	 adds r1,r2,r3
 397 0090 BB8B     	 ldrh r3,[r7,#28]
 398 0092 FA68     	 ldr r2,[r7,#12]
 399 0094 1A44     	 add r2,r2,r3
 400 0096 FB8B     	 ldrh r3,[r7,#30]
 401 0098 0846     	 mov r0,r1
 402 009a 1146     	 mov r1,r2
 403 009c 1A46     	 mov r2,r3
 404 009e FFF7FEFF 	 bl SwapCopy
 178:../Dave/Generated/USBD/usb/core/xmc4000/usbd_endpoint_stream_xmc4000.c **** 								(uint8_t*)Buffer + BytesTransfered,Bytes);
 179:../Dave/Generated/USBD/usb/core/xmc4000/usbd_endpoint_stream_xmc4000.c **** 			ep->InBytesAvailable += Bytes;
 405              	 .loc 1 179 0
 406 00a2 BB69     	 ldr r3,[r7,#24]
 407 00a4 9A69     	 ldr r2,[r3,#24]
 408 00a6 FB8B     	 ldrh r3,[r7,#30]
 409 00a8 1A44     	 add r2,r2,r3
 410 00aa BB69     	 ldr r3,[r7,#24]
 411 00ac 9A61     	 str r2,[r3,#24]
 180:../Dave/Generated/USBD/usb/core/xmc4000/usbd_endpoint_stream_xmc4000.c **** 			BytesTransfered += Bytes;
 412              	 .loc 1 180 0
 413 00ae BA8B     	 ldrh r2,[r7,#28]
 414 00b0 FB8B     	 ldrh r3,[r7,#30]
 415 00b2 1344     	 add r3,r3,r2
 416 00b4 BB83     	 strh r3,[r7,#28]
 181:../Dave/Generated/USBD/usb/core/xmc4000/usbd_endpoint_stream_xmc4000.c **** 			Length -= Bytes;
 417              	 .loc 1 181 0
 418 00b6 7A89     	 ldrh r2,[r7,#10]
 419 00b8 FB8B     	 ldrh r3,[r7,#30]
 420 00ba D31A     	 subs r3,r2,r3
 421 00bc 7B81     	 strh r3,[r7,#10]
 422 00be 12E0     	 b .L18
 423              	.L20:
 182:../Dave/Generated/USBD/usb/core/xmc4000/usbd_endpoint_stream_xmc4000.c **** 		}
 183:../Dave/Generated/USBD/usb/core/xmc4000/usbd_endpoint_stream_xmc4000.c **** 		else 
 184:../Dave/Generated/USBD/usb/core/xmc4000/usbd_endpoint_stream_xmc4000.c **** 		{
 185:../Dave/Generated/USBD/usb/core/xmc4000/usbd_endpoint_stream_xmc4000.c **** 			Endpoint_ClearIN();
 424              	 .loc 1 185 0
 425 00c0 FFF7FEFF 	 bl Endpoint_ClearIN
 186:../Dave/Generated/USBD/usb/core/xmc4000/usbd_endpoint_stream_xmc4000.c **** 			if (BytesProcessed!=NULL) 
 426              	 .loc 1 186 0
 427 00c4 7B68     	 ldr r3,[r7,#4]
 428 00c6 002B     	 cmp r3,#0
 429 00c8 04D0     	 beq .L23
 187:../Dave/Generated/USBD/usb/core/xmc4000/usbd_endpoint_stream_xmc4000.c **** 			{
 188:../Dave/Generated/USBD/usb/core/xmc4000/usbd_endpoint_stream_xmc4000.c **** 				*BytesProcessed = BytesTransfered;
 430              	 .loc 1 188 0
 431 00ca 7B68     	 ldr r3,[r7,#4]
 432 00cc BA8B     	 ldrh r2,[r7,#28]
 433 00ce 1A80     	 strh r2,[r3]
 189:../Dave/Generated/USBD/usb/core/xmc4000/usbd_endpoint_stream_xmc4000.c **** 				return ENDPOINT_RWSTREAM_IncompleteTransfer;
 434              	 .loc 1 189 0
 435 00d0 0523     	 movs r3,#5
 436 00d2 0CE0     	 b .L24
 437              	.L23:
 190:../Dave/Generated/USBD/usb/core/xmc4000/usbd_endpoint_stream_xmc4000.c **** 			}
 191:../Dave/Generated/USBD/usb/core/xmc4000/usbd_endpoint_stream_xmc4000.c **** 
 192:../Dave/Generated/USBD/usb/core/xmc4000/usbd_endpoint_stream_xmc4000.c **** 			ErrorCode = Endpoint_WaitUntilReady();
 438              	 .loc 1 192 0
 439 00d4 FFF7FEFF 	 bl Endpoint_WaitUntilReady
 440 00d8 0346     	 mov r3,r0
 441 00da FB75     	 strb r3,[r7,#23]
 193:../Dave/Generated/USBD/usb/core/xmc4000/usbd_endpoint_stream_xmc4000.c **** 			if (ErrorCode) 
 442              	 .loc 1 193 0
 443 00dc FB7D     	 ldrb r3,[r7,#23]
 444 00de 002B     	 cmp r3,#0
 445 00e0 01D0     	 beq .L18
 194:../Dave/Generated/USBD/usb/core/xmc4000/usbd_endpoint_stream_xmc4000.c **** 			{
 195:../Dave/Generated/USBD/usb/core/xmc4000/usbd_endpoint_stream_xmc4000.c **** 				return ErrorCode;
 446              	 .loc 1 195 0
 447 00e2 FB7D     	 ldrb r3,[r7,#23]
 448 00e4 03E0     	 b .L24
 449              	.L18:
 160:../Dave/Generated/USBD/usb/core/xmc4000/usbd_endpoint_stream_xmc4000.c **** 	{
 450              	 .loc 1 160 0
 451 00e6 7B89     	 ldrh r3,[r7,#10]
 452 00e8 002B     	 cmp r3,#0
 453 00ea ABD1     	 bne .L25
 196:../Dave/Generated/USBD/usb/core/xmc4000/usbd_endpoint_stream_xmc4000.c **** 			}
 197:../Dave/Generated/USBD/usb/core/xmc4000/usbd_endpoint_stream_xmc4000.c **** 		}
 198:../Dave/Generated/USBD/usb/core/xmc4000/usbd_endpoint_stream_xmc4000.c **** 	}
 199:../Dave/Generated/USBD/usb/core/xmc4000/usbd_endpoint_stream_xmc4000.c **** 	return ENDPOINT_RWSTREAM_NoError;
 454              	 .loc 1 199 0
 455 00ec 0023     	 movs r3,#0
 456              	.L24:
 200:../Dave/Generated/USBD/usb/core/xmc4000/usbd_endpoint_stream_xmc4000.c **** }
 457              	 .loc 1 200 0
 458 00ee 1846     	 mov r0,r3
 459 00f0 2037     	 adds r7,r7,#32
 460              	.LCFI14:
 461              	 .cfi_def_cfa_offset 8
 462 00f2 BD46     	 mov sp,r7
 463              	.LCFI15:
 464              	 .cfi_def_cfa_register 13
 465              	 
 466 00f4 80BD     	 pop {r7,pc}
 467              	.L27:
 468 00f6 00BF     	 .align 2
 469              	.L26:
 470 00f8 00000000 	 .word device
 471              	 .cfi_endproc
 472              	.LFE172:
 474              	 .section .text.Endpoint_Read_Stream_LE,"ax",%progbits
 475              	 .align 2
 476              	 .global Endpoint_Read_Stream_LE
 477              	 .thumb
 478              	 .thumb_func
 480              	Endpoint_Read_Stream_LE:
 481              	.LFB173:
 201:../Dave/Generated/USBD/usb/core/xmc4000/usbd_endpoint_stream_xmc4000.c **** 
 202:../Dave/Generated/USBD/usb/core/xmc4000/usbd_endpoint_stream_xmc4000.c **** uint8_t	Endpoint_Read_Stream_LE (void *const Buffer, uint16_t Length,
 203:../Dave/Generated/USBD/usb/core/xmc4000/usbd_endpoint_stream_xmc4000.c **** 									uint16_t *const BytesProcessed)
 204:../Dave/Generated/USBD/usb/core/xmc4000/usbd_endpoint_stream_xmc4000.c **** {
 482              	 .loc 1 204 0
 483              	 .cfi_startproc
 484              	 
 485              	 
 486 0000 80B5     	 push {r7,lr}
 487              	.LCFI16:
 488              	 .cfi_def_cfa_offset 8
 489              	 .cfi_offset 7,-8
 490              	 .cfi_offset 14,-4
 491 0002 88B0     	 sub sp,sp,#32
 492              	.LCFI17:
 493              	 .cfi_def_cfa_offset 40
 494 0004 00AF     	 add r7,sp,#0
 495              	.LCFI18:
 496              	 .cfi_def_cfa_register 7
 497 0006 F860     	 str r0,[r7,#12]
 498 0008 0B46     	 mov r3,r1
 499 000a 7A60     	 str r2,[r7,#4]
 500 000c 7B81     	 strh r3,[r7,#10]
 205:../Dave/Generated/USBD/usb/core/xmc4000/usbd_endpoint_stream_xmc4000.c **** 	USBD_Endpoint_t* ep = &device.Endpoints[device.CurrentEndpoint];
 501              	 .loc 1 205 0
 502 000e 394B     	 ldr r3,.L38
 503 0010 93F83C31 	 ldrb r3,[r3,#316]
 504 0014 1A46     	 mov r2,r3
 505 0016 2C23     	 movs r3,#44
 506 0018 03FB02F3 	 mul r3,r3,r2
 507 001c 354A     	 ldr r2,.L38
 508 001e 1344     	 add r3,r3,r2
 509 0020 0433     	 adds r3,r3,#4
 510 0022 BB61     	 str r3,[r7,#24]
 206:../Dave/Generated/USBD/usb/core/xmc4000/usbd_endpoint_stream_xmc4000.c **** 	uint16_t Bytes = 0;
 511              	 .loc 1 206 0
 512 0024 0023     	 movs r3,#0
 513 0026 FB83     	 strh r3,[r7,#30]
 207:../Dave/Generated/USBD/usb/core/xmc4000/usbd_endpoint_stream_xmc4000.c **** 	uint16_t BytesTransfered = 0;
 514              	 .loc 1 207 0
 515 0028 0023     	 movs r3,#0
 516 002a BB83     	 strh r3,[r7,#28]
 208:../Dave/Generated/USBD/usb/core/xmc4000/usbd_endpoint_stream_xmc4000.c **** 	uint8_t ErrorCode;
 209:../Dave/Generated/USBD/usb/core/xmc4000/usbd_endpoint_stream_xmc4000.c **** 
 210:../Dave/Generated/USBD/usb/core/xmc4000/usbd_endpoint_stream_xmc4000.c **** 	if (BytesProcessed!=NULL) 
 517              	 .loc 1 210 0
 518 002c 7B68     	 ldr r3,[r7,#4]
 519 002e 002B     	 cmp r3,#0
 520 0030 07D0     	 beq .L29
 211:../Dave/Generated/USBD/usb/core/xmc4000/usbd_endpoint_stream_xmc4000.c **** 	{
 212:../Dave/Generated/USBD/usb/core/xmc4000/usbd_endpoint_stream_xmc4000.c **** 		Length -= *BytesProcessed;
 521              	 .loc 1 212 0
 522 0032 7B68     	 ldr r3,[r7,#4]
 523 0034 1B88     	 ldrh r3,[r3]
 524 0036 7A89     	 ldrh r2,[r7,#10]
 525 0038 D31A     	 subs r3,r2,r3
 526 003a 7B81     	 strh r3,[r7,#10]
 213:../Dave/Generated/USBD/usb/core/xmc4000/usbd_endpoint_stream_xmc4000.c **** 		BytesTransfered = *BytesProcessed;
 527              	 .loc 1 213 0
 528 003c 7B68     	 ldr r3,[r7,#4]
 529 003e 1B88     	 ldrh r3,[r3]
 530 0040 BB83     	 strh r3,[r7,#28]
 531              	.L29:
 214:../Dave/Generated/USBD/usb/core/xmc4000/usbd_endpoint_stream_xmc4000.c **** 	}
 215:../Dave/Generated/USBD/usb/core/xmc4000/usbd_endpoint_stream_xmc4000.c **** 
 216:../Dave/Generated/USBD/usb/core/xmc4000/usbd_endpoint_stream_xmc4000.c **** 	while (Length) 
 532              	 .loc 1 216 0
 533 0042 4EE0     	 b .L30
 534              	.L37:
 217:../Dave/Generated/USBD/usb/core/xmc4000/usbd_endpoint_stream_xmc4000.c **** 	{
 218:../Dave/Generated/USBD/usb/core/xmc4000/usbd_endpoint_stream_xmc4000.c **** 		if (ep->OutInUse)
 535              	 .loc 1 218 0
 536 0044 BB69     	 ldr r3,[r7,#24]
 537 0046 5B68     	 ldr r3,[r3,#4]
 538 0048 DB08     	 lsrs r3,r3,#3
 539 004a 03F00103 	 and r3,r3,#1
 540 004e DBB2     	 uxtb r3,r3
 541 0050 002B     	 cmp r3,#0
 542 0052 00D0     	 beq .L31
 219:../Dave/Generated/USBD/usb/core/xmc4000/usbd_endpoint_stream_xmc4000.c **** 		{
 220:../Dave/Generated/USBD/usb/core/xmc4000/usbd_endpoint_stream_xmc4000.c **** 			continue;
 543              	 .loc 1 220 0
 544 0054 45E0     	 b .L30
 545              	.L31:
 221:../Dave/Generated/USBD/usb/core/xmc4000/usbd_endpoint_stream_xmc4000.c **** 		}
 222:../Dave/Generated/USBD/usb/core/xmc4000/usbd_endpoint_stream_xmc4000.c **** 		if (Endpoint_IsReadWriteAllowed()) 
 546              	 .loc 1 222 0
 547 0056 FFF7FEFF 	 bl Endpoint_IsReadWriteAllowed
 548 005a 0346     	 mov r3,r0
 549 005c 002B     	 cmp r3,#0
 550 005e 2DD0     	 beq .L32
 223:../Dave/Generated/USBD/usb/core/xmc4000/usbd_endpoint_stream_xmc4000.c **** 		{
 224:../Dave/Generated/USBD/usb/core/xmc4000/usbd_endpoint_stream_xmc4000.c **** 			if(ep->OutBytesAvailable  > Length)
 551              	 .loc 1 224 0
 552 0060 BB69     	 ldr r3,[r7,#24]
 553 0062 9A68     	 ldr r2,[r3,#8]
 554 0064 7B89     	 ldrh r3,[r7,#10]
 555 0066 9A42     	 cmp r2,r3
 556 0068 02D9     	 bls .L33
 225:../Dave/Generated/USBD/usb/core/xmc4000/usbd_endpoint_stream_xmc4000.c **** 			{
 226:../Dave/Generated/USBD/usb/core/xmc4000/usbd_endpoint_stream_xmc4000.c **** 				Bytes = Length;
 557              	 .loc 1 226 0
 558 006a 7B89     	 ldrh r3,[r7,#10]
 559 006c FB83     	 strh r3,[r7,#30]
 560 006e 02E0     	 b .L34
 561              	.L33:
 227:../Dave/Generated/USBD/usb/core/xmc4000/usbd_endpoint_stream_xmc4000.c **** 			}
 228:../Dave/Generated/USBD/usb/core/xmc4000/usbd_endpoint_stream_xmc4000.c **** 			else
 229:../Dave/Generated/USBD/usb/core/xmc4000/usbd_endpoint_stream_xmc4000.c **** 			{
 230:../Dave/Generated/USBD/usb/core/xmc4000/usbd_endpoint_stream_xmc4000.c **** 				Bytes = (uint16_t)ep->OutBytesAvailable;
 562              	 .loc 1 230 0
 563 0070 BB69     	 ldr r3,[r7,#24]
 564 0072 9B68     	 ldr r3,[r3,#8]
 565 0074 FB83     	 strh r3,[r7,#30]
 566              	.L34:
 231:../Dave/Generated/USBD/usb/core/xmc4000/usbd_endpoint_stream_xmc4000.c **** 			}
 232:../Dave/Generated/USBD/usb/core/xmc4000/usbd_endpoint_stream_xmc4000.c **** 
 233:../Dave/Generated/USBD/usb/core/xmc4000/usbd_endpoint_stream_xmc4000.c **** 			memcpy((uint8_t*)Buffer + BytesTransfered,
 567              	 .loc 1 233 0
 568 0076 BB8B     	 ldrh r3,[r7,#28]
 569 0078 FA68     	 ldr r2,[r7,#12]
 570 007a D118     	 adds r1,r2,r3
 234:../Dave/Generated/USBD/usb/core/xmc4000/usbd_endpoint_stream_xmc4000.c **** 									ep->OutBuffer + ep->OutOffset,Bytes);
 571              	 .loc 1 234 0
 572 007c BB69     	 ldr r3,[r7,#24]
 573 007e 1A69     	 ldr r2,[r3,#16]
 574 0080 BB69     	 ldr r3,[r7,#24]
 575 0082 DB68     	 ldr r3,[r3,#12]
 576 0084 1A44     	 add r2,r2,r3
 233:../Dave/Generated/USBD/usb/core/xmc4000/usbd_endpoint_stream_xmc4000.c **** 									ep->OutBuffer + ep->OutOffset,Bytes);
 577              	 .loc 1 233 0
 578 0086 FB8B     	 ldrh r3,[r7,#30]
 579 0088 0846     	 mov r0,r1
 580 008a 1146     	 mov r1,r2
 581 008c 1A46     	 mov r2,r3
 582 008e FFF7FEFF 	 bl memcpy
 235:../Dave/Generated/USBD/usb/core/xmc4000/usbd_endpoint_stream_xmc4000.c **** 			ep->OutBytesAvailable -= Bytes;
 583              	 .loc 1 235 0
 584 0092 BB69     	 ldr r3,[r7,#24]
 585 0094 9A68     	 ldr r2,[r3,#8]
 586 0096 FB8B     	 ldrh r3,[r7,#30]
 587 0098 D21A     	 subs r2,r2,r3
 588 009a BB69     	 ldr r3,[r7,#24]
 589 009c 9A60     	 str r2,[r3,#8]
 236:../Dave/Generated/USBD/usb/core/xmc4000/usbd_endpoint_stream_xmc4000.c **** 			ep->OutOffset += Bytes;
 590              	 .loc 1 236 0
 591 009e BB69     	 ldr r3,[r7,#24]
 592 00a0 DA68     	 ldr r2,[r3,#12]
 593 00a2 FB8B     	 ldrh r3,[r7,#30]
 594 00a4 1A44     	 add r2,r2,r3
 595 00a6 BB69     	 ldr r3,[r7,#24]
 596 00a8 DA60     	 str r2,[r3,#12]
 237:../Dave/Generated/USBD/usb/core/xmc4000/usbd_endpoint_stream_xmc4000.c **** 			BytesTransfered += Bytes;
 597              	 .loc 1 237 0
 598 00aa BA8B     	 ldrh r2,[r7,#28]
 599 00ac FB8B     	 ldrh r3,[r7,#30]
 600 00ae 1344     	 add r3,r3,r2
 601 00b0 BB83     	 strh r3,[r7,#28]
 238:../Dave/Generated/USBD/usb/core/xmc4000/usbd_endpoint_stream_xmc4000.c **** 			Length -= Bytes;
 602              	 .loc 1 238 0
 603 00b2 7A89     	 ldrh r2,[r7,#10]
 604 00b4 FB8B     	 ldrh r3,[r7,#30]
 605 00b6 D31A     	 subs r3,r2,r3
 606 00b8 7B81     	 strh r3,[r7,#10]
 607 00ba 12E0     	 b .L30
 608              	.L32:
 239:../Dave/Generated/USBD/usb/core/xmc4000/usbd_endpoint_stream_xmc4000.c **** 		}
 240:../Dave/Generated/USBD/usb/core/xmc4000/usbd_endpoint_stream_xmc4000.c **** 		else 
 241:../Dave/Generated/USBD/usb/core/xmc4000/usbd_endpoint_stream_xmc4000.c **** 		{
 242:../Dave/Generated/USBD/usb/core/xmc4000/usbd_endpoint_stream_xmc4000.c **** 			Endpoint_ClearOUT();
 609              	 .loc 1 242 0
 610 00bc FFF7FEFF 	 bl Endpoint_ClearOUT
 243:../Dave/Generated/USBD/usb/core/xmc4000/usbd_endpoint_stream_xmc4000.c **** 			if (BytesProcessed != NULL) 
 611              	 .loc 1 243 0
 612 00c0 7B68     	 ldr r3,[r7,#4]
 613 00c2 002B     	 cmp r3,#0
 614 00c4 04D0     	 beq .L35
 244:../Dave/Generated/USBD/usb/core/xmc4000/usbd_endpoint_stream_xmc4000.c **** 			{
 245:../Dave/Generated/USBD/usb/core/xmc4000/usbd_endpoint_stream_xmc4000.c **** 				*BytesProcessed = BytesTransfered;
 615              	 .loc 1 245 0
 616 00c6 7B68     	 ldr r3,[r7,#4]
 617 00c8 BA8B     	 ldrh r2,[r7,#28]
 618 00ca 1A80     	 strh r2,[r3]
 246:../Dave/Generated/USBD/usb/core/xmc4000/usbd_endpoint_stream_xmc4000.c **** 				return ENDPOINT_RWSTREAM_IncompleteTransfer;
 619              	 .loc 1 246 0
 620 00cc 0523     	 movs r3,#5
 621 00ce 0CE0     	 b .L36
 622              	.L35:
 247:../Dave/Generated/USBD/usb/core/xmc4000/usbd_endpoint_stream_xmc4000.c **** 			}
 248:../Dave/Generated/USBD/usb/core/xmc4000/usbd_endpoint_stream_xmc4000.c **** 
 249:../Dave/Generated/USBD/usb/core/xmc4000/usbd_endpoint_stream_xmc4000.c **** 			ErrorCode = Endpoint_WaitUntilReady();
 623              	 .loc 1 249 0
 624 00d0 FFF7FEFF 	 bl Endpoint_WaitUntilReady
 625 00d4 0346     	 mov r3,r0
 626 00d6 FB75     	 strb r3,[r7,#23]
 250:../Dave/Generated/USBD/usb/core/xmc4000/usbd_endpoint_stream_xmc4000.c **** 			if (ErrorCode) 
 627              	 .loc 1 250 0
 628 00d8 FB7D     	 ldrb r3,[r7,#23]
 629 00da 002B     	 cmp r3,#0
 630 00dc 01D0     	 beq .L30
 251:../Dave/Generated/USBD/usb/core/xmc4000/usbd_endpoint_stream_xmc4000.c **** 			{
 252:../Dave/Generated/USBD/usb/core/xmc4000/usbd_endpoint_stream_xmc4000.c **** 				return ErrorCode;
 631              	 .loc 1 252 0
 632 00de FB7D     	 ldrb r3,[r7,#23]
 633 00e0 03E0     	 b .L36
 634              	.L30:
 216:../Dave/Generated/USBD/usb/core/xmc4000/usbd_endpoint_stream_xmc4000.c **** 	{
 635              	 .loc 1 216 0
 636 00e2 7B89     	 ldrh r3,[r7,#10]
 637 00e4 002B     	 cmp r3,#0
 638 00e6 ADD1     	 bne .L37
 253:../Dave/Generated/USBD/usb/core/xmc4000/usbd_endpoint_stream_xmc4000.c **** 			}
 254:../Dave/Generated/USBD/usb/core/xmc4000/usbd_endpoint_stream_xmc4000.c **** 		}
 255:../Dave/Generated/USBD/usb/core/xmc4000/usbd_endpoint_stream_xmc4000.c **** 	}
 256:../Dave/Generated/USBD/usb/core/xmc4000/usbd_endpoint_stream_xmc4000.c **** 	return ENDPOINT_RWSTREAM_NoError;
 639              	 .loc 1 256 0
 640 00e8 0023     	 movs r3,#0
 641              	.L36:
 257:../Dave/Generated/USBD/usb/core/xmc4000/usbd_endpoint_stream_xmc4000.c **** }
 642              	 .loc 1 257 0
 643 00ea 1846     	 mov r0,r3
 644 00ec 2037     	 adds r7,r7,#32
 645              	.LCFI19:
 646              	 .cfi_def_cfa_offset 8
 647 00ee BD46     	 mov sp,r7
 648              	.LCFI20:
 649              	 .cfi_def_cfa_register 13
 650              	 
 651 00f0 80BD     	 pop {r7,pc}
 652              	.L39:
 653 00f2 00BF     	 .align 2
 654              	.L38:
 655 00f4 00000000 	 .word device
 656              	 .cfi_endproc
 657              	.LFE173:
 659              	 .section .text.Endpoint_Read_Stream_BE,"ax",%progbits
 660              	 .align 2
 661              	 .global Endpoint_Read_Stream_BE
 662              	 .thumb
 663              	 .thumb_func
 665              	Endpoint_Read_Stream_BE:
 666              	.LFB174:
 258:../Dave/Generated/USBD/usb/core/xmc4000/usbd_endpoint_stream_xmc4000.c **** 
 259:../Dave/Generated/USBD/usb/core/xmc4000/usbd_endpoint_stream_xmc4000.c **** uint8_t	Endpoint_Read_Stream_BE (void *const Buffer, uint16_t Length,
 260:../Dave/Generated/USBD/usb/core/xmc4000/usbd_endpoint_stream_xmc4000.c **** 									uint16_t *const BytesProcessed)
 261:../Dave/Generated/USBD/usb/core/xmc4000/usbd_endpoint_stream_xmc4000.c **** {
 667              	 .loc 1 261 0
 668              	 .cfi_startproc
 669              	 
 670              	 
 671 0000 80B5     	 push {r7,lr}
 672              	.LCFI21:
 673              	 .cfi_def_cfa_offset 8
 674              	 .cfi_offset 7,-8
 675              	 .cfi_offset 14,-4
 676 0002 88B0     	 sub sp,sp,#32
 677              	.LCFI22:
 678              	 .cfi_def_cfa_offset 40
 679 0004 00AF     	 add r7,sp,#0
 680              	.LCFI23:
 681              	 .cfi_def_cfa_register 7
 682 0006 F860     	 str r0,[r7,#12]
 683 0008 0B46     	 mov r3,r1
 684 000a 7A60     	 str r2,[r7,#4]
 685 000c 7B81     	 strh r3,[r7,#10]
 262:../Dave/Generated/USBD/usb/core/xmc4000/usbd_endpoint_stream_xmc4000.c **** 	USBD_Endpoint_t* ep = &device.Endpoints[device.CurrentEndpoint];
 686              	 .loc 1 262 0
 687 000e 394B     	 ldr r3,.L50
 688 0010 93F83C31 	 ldrb r3,[r3,#316]
 689 0014 1A46     	 mov r2,r3
 690 0016 2C23     	 movs r3,#44
 691 0018 03FB02F3 	 mul r3,r3,r2
 692 001c 354A     	 ldr r2,.L50
 693 001e 1344     	 add r3,r3,r2
 694 0020 0433     	 adds r3,r3,#4
 695 0022 BB61     	 str r3,[r7,#24]
 263:../Dave/Generated/USBD/usb/core/xmc4000/usbd_endpoint_stream_xmc4000.c **** 	uint16_t Bytes = 0;
 696              	 .loc 1 263 0
 697 0024 0023     	 movs r3,#0
 698 0026 FB83     	 strh r3,[r7,#30]
 264:../Dave/Generated/USBD/usb/core/xmc4000/usbd_endpoint_stream_xmc4000.c **** 	uint16_t BytesTransfered = 0;
 699              	 .loc 1 264 0
 700 0028 0023     	 movs r3,#0
 701 002a BB83     	 strh r3,[r7,#28]
 265:../Dave/Generated/USBD/usb/core/xmc4000/usbd_endpoint_stream_xmc4000.c **** 	uint8_t ErrorCode;
 266:../Dave/Generated/USBD/usb/core/xmc4000/usbd_endpoint_stream_xmc4000.c **** 
 267:../Dave/Generated/USBD/usb/core/xmc4000/usbd_endpoint_stream_xmc4000.c **** 	if (BytesProcessed!=NULL) 
 702              	 .loc 1 267 0
 703 002c 7B68     	 ldr r3,[r7,#4]
 704 002e 002B     	 cmp r3,#0
 705 0030 07D0     	 beq .L41
 268:../Dave/Generated/USBD/usb/core/xmc4000/usbd_endpoint_stream_xmc4000.c **** 	{
 269:../Dave/Generated/USBD/usb/core/xmc4000/usbd_endpoint_stream_xmc4000.c **** 		Length -= *BytesProcessed;
 706              	 .loc 1 269 0
 707 0032 7B68     	 ldr r3,[r7,#4]
 708 0034 1B88     	 ldrh r3,[r3]
 709 0036 7A89     	 ldrh r2,[r7,#10]
 710 0038 D31A     	 subs r3,r2,r3
 711 003a 7B81     	 strh r3,[r7,#10]
 270:../Dave/Generated/USBD/usb/core/xmc4000/usbd_endpoint_stream_xmc4000.c **** 		BytesTransfered = *BytesProcessed;
 712              	 .loc 1 270 0
 713 003c 7B68     	 ldr r3,[r7,#4]
 714 003e 1B88     	 ldrh r3,[r3]
 715 0040 BB83     	 strh r3,[r7,#28]
 716              	.L41:
 271:../Dave/Generated/USBD/usb/core/xmc4000/usbd_endpoint_stream_xmc4000.c **** 	}
 272:../Dave/Generated/USBD/usb/core/xmc4000/usbd_endpoint_stream_xmc4000.c **** 
 273:../Dave/Generated/USBD/usb/core/xmc4000/usbd_endpoint_stream_xmc4000.c **** 	while (Length) 
 717              	 .loc 1 273 0
 718 0042 4EE0     	 b .L42
 719              	.L49:
 274:../Dave/Generated/USBD/usb/core/xmc4000/usbd_endpoint_stream_xmc4000.c **** 	{
 275:../Dave/Generated/USBD/usb/core/xmc4000/usbd_endpoint_stream_xmc4000.c **** 		if (ep->InInUse)
 720              	 .loc 1 275 0
 721 0044 BB69     	 ldr r3,[r7,#24]
 722 0046 5B68     	 ldr r3,[r3,#4]
 723 0048 1B09     	 lsrs r3,r3,#4
 724 004a 03F00103 	 and r3,r3,#1
 725 004e DBB2     	 uxtb r3,r3
 726 0050 002B     	 cmp r3,#0
 727 0052 00D0     	 beq .L43
 276:../Dave/Generated/USBD/usb/core/xmc4000/usbd_endpoint_stream_xmc4000.c **** 		{
 277:../Dave/Generated/USBD/usb/core/xmc4000/usbd_endpoint_stream_xmc4000.c **** 			continue;
 728              	 .loc 1 277 0
 729 0054 45E0     	 b .L42
 730              	.L43:
 278:../Dave/Generated/USBD/usb/core/xmc4000/usbd_endpoint_stream_xmc4000.c **** 		}
 279:../Dave/Generated/USBD/usb/core/xmc4000/usbd_endpoint_stream_xmc4000.c **** 		if (Endpoint_IsReadWriteAllowed()) 
 731              	 .loc 1 279 0
 732 0056 FFF7FEFF 	 bl Endpoint_IsReadWriteAllowed
 733 005a 0346     	 mov r3,r0
 734 005c 002B     	 cmp r3,#0
 735 005e 2DD0     	 beq .L44
 280:../Dave/Generated/USBD/usb/core/xmc4000/usbd_endpoint_stream_xmc4000.c **** 		{
 281:../Dave/Generated/USBD/usb/core/xmc4000/usbd_endpoint_stream_xmc4000.c **** 			if(ep->OutBytesAvailable  > Length)
 736              	 .loc 1 281 0
 737 0060 BB69     	 ldr r3,[r7,#24]
 738 0062 9A68     	 ldr r2,[r3,#8]
 739 0064 7B89     	 ldrh r3,[r7,#10]
 740 0066 9A42     	 cmp r2,r3
 741 0068 02D9     	 bls .L45
 282:../Dave/Generated/USBD/usb/core/xmc4000/usbd_endpoint_stream_xmc4000.c **** 			{
 283:../Dave/Generated/USBD/usb/core/xmc4000/usbd_endpoint_stream_xmc4000.c **** 				Bytes = Length;
 742              	 .loc 1 283 0
 743 006a 7B89     	 ldrh r3,[r7,#10]
 744 006c FB83     	 strh r3,[r7,#30]
 745 006e 02E0     	 b .L46
 746              	.L45:
 284:../Dave/Generated/USBD/usb/core/xmc4000/usbd_endpoint_stream_xmc4000.c **** 			}
 285:../Dave/Generated/USBD/usb/core/xmc4000/usbd_endpoint_stream_xmc4000.c **** 			else
 286:../Dave/Generated/USBD/usb/core/xmc4000/usbd_endpoint_stream_xmc4000.c **** 			{
 287:../Dave/Generated/USBD/usb/core/xmc4000/usbd_endpoint_stream_xmc4000.c **** 				Bytes = (uint16_t)ep->OutBytesAvailable;
 747              	 .loc 1 287 0
 748 0070 BB69     	 ldr r3,[r7,#24]
 749 0072 9B68     	 ldr r3,[r3,#8]
 750 0074 FB83     	 strh r3,[r7,#30]
 751              	.L46:
 288:../Dave/Generated/USBD/usb/core/xmc4000/usbd_endpoint_stream_xmc4000.c **** 			}
 289:../Dave/Generated/USBD/usb/core/xmc4000/usbd_endpoint_stream_xmc4000.c **** 
 290:../Dave/Generated/USBD/usb/core/xmc4000/usbd_endpoint_stream_xmc4000.c **** 			SwapCopy((uint8_t*)Buffer + BytesTransfered,
 752              	 .loc 1 290 0
 753 0076 BB8B     	 ldrh r3,[r7,#28]
 754 0078 FA68     	 ldr r2,[r7,#12]
 755 007a D118     	 adds r1,r2,r3
 291:../Dave/Generated/USBD/usb/core/xmc4000/usbd_endpoint_stream_xmc4000.c **** 									ep->OutBuffer + ep->OutOffset,Bytes);
 756              	 .loc 1 291 0
 757 007c BB69     	 ldr r3,[r7,#24]
 758 007e 1A69     	 ldr r2,[r3,#16]
 759 0080 BB69     	 ldr r3,[r7,#24]
 760 0082 DB68     	 ldr r3,[r3,#12]
 290:../Dave/Generated/USBD/usb/core/xmc4000/usbd_endpoint_stream_xmc4000.c **** 									ep->OutBuffer + ep->OutOffset,Bytes);
 761              	 .loc 1 290 0
 762 0084 1A44     	 add r2,r2,r3
 763 0086 FB8B     	 ldrh r3,[r7,#30]
 764 0088 0846     	 mov r0,r1
 765 008a 1146     	 mov r1,r2
 766 008c 1A46     	 mov r2,r3
 767 008e FFF7FEFF 	 bl SwapCopy
 292:../Dave/Generated/USBD/usb/core/xmc4000/usbd_endpoint_stream_xmc4000.c **** 			ep->OutBytesAvailable -= Bytes;
 768              	 .loc 1 292 0
 769 0092 BB69     	 ldr r3,[r7,#24]
 770 0094 9A68     	 ldr r2,[r3,#8]
 771 0096 FB8B     	 ldrh r3,[r7,#30]
 772 0098 D21A     	 subs r2,r2,r3
 773 009a BB69     	 ldr r3,[r7,#24]
 774 009c 9A60     	 str r2,[r3,#8]
 293:../Dave/Generated/USBD/usb/core/xmc4000/usbd_endpoint_stream_xmc4000.c **** 			ep->OutOffset += Bytes;
 775              	 .loc 1 293 0
 776 009e BB69     	 ldr r3,[r7,#24]
 777 00a0 DA68     	 ldr r2,[r3,#12]
 778 00a2 FB8B     	 ldrh r3,[r7,#30]
 779 00a4 1A44     	 add r2,r2,r3
 780 00a6 BB69     	 ldr r3,[r7,#24]
 781 00a8 DA60     	 str r2,[r3,#12]
 294:../Dave/Generated/USBD/usb/core/xmc4000/usbd_endpoint_stream_xmc4000.c **** 			BytesTransfered += Bytes;
 782              	 .loc 1 294 0
 783 00aa BA8B     	 ldrh r2,[r7,#28]
 784 00ac FB8B     	 ldrh r3,[r7,#30]
 785 00ae 1344     	 add r3,r3,r2
 786 00b0 BB83     	 strh r3,[r7,#28]
 295:../Dave/Generated/USBD/usb/core/xmc4000/usbd_endpoint_stream_xmc4000.c **** 			Length -= Bytes;
 787              	 .loc 1 295 0
 788 00b2 7A89     	 ldrh r2,[r7,#10]
 789 00b4 FB8B     	 ldrh r3,[r7,#30]
 790 00b6 D31A     	 subs r3,r2,r3
 791 00b8 7B81     	 strh r3,[r7,#10]
 792 00ba 12E0     	 b .L42
 793              	.L44:
 296:../Dave/Generated/USBD/usb/core/xmc4000/usbd_endpoint_stream_xmc4000.c **** 		}
 297:../Dave/Generated/USBD/usb/core/xmc4000/usbd_endpoint_stream_xmc4000.c **** 		else 
 298:../Dave/Generated/USBD/usb/core/xmc4000/usbd_endpoint_stream_xmc4000.c **** 		{
 299:../Dave/Generated/USBD/usb/core/xmc4000/usbd_endpoint_stream_xmc4000.c **** 			Endpoint_ClearOUT();
 794              	 .loc 1 299 0
 795 00bc FFF7FEFF 	 bl Endpoint_ClearOUT
 300:../Dave/Generated/USBD/usb/core/xmc4000/usbd_endpoint_stream_xmc4000.c **** 			if (BytesProcessed!=NULL) 
 796              	 .loc 1 300 0
 797 00c0 7B68     	 ldr r3,[r7,#4]
 798 00c2 002B     	 cmp r3,#0
 799 00c4 04D0     	 beq .L47
 301:../Dave/Generated/USBD/usb/core/xmc4000/usbd_endpoint_stream_xmc4000.c **** 			{
 302:../Dave/Generated/USBD/usb/core/xmc4000/usbd_endpoint_stream_xmc4000.c **** 				*BytesProcessed = BytesTransfered;
 800              	 .loc 1 302 0
 801 00c6 7B68     	 ldr r3,[r7,#4]
 802 00c8 BA8B     	 ldrh r2,[r7,#28]
 803 00ca 1A80     	 strh r2,[r3]
 303:../Dave/Generated/USBD/usb/core/xmc4000/usbd_endpoint_stream_xmc4000.c **** 				return ENDPOINT_RWSTREAM_IncompleteTransfer;
 804              	 .loc 1 303 0
 805 00cc 0523     	 movs r3,#5
 806 00ce 0CE0     	 b .L48
 807              	.L47:
 304:../Dave/Generated/USBD/usb/core/xmc4000/usbd_endpoint_stream_xmc4000.c **** 			}
 305:../Dave/Generated/USBD/usb/core/xmc4000/usbd_endpoint_stream_xmc4000.c **** 			ErrorCode = Endpoint_WaitUntilReady();
 808              	 .loc 1 305 0
 809 00d0 FFF7FEFF 	 bl Endpoint_WaitUntilReady
 810 00d4 0346     	 mov r3,r0
 811 00d6 FB75     	 strb r3,[r7,#23]
 306:../Dave/Generated/USBD/usb/core/xmc4000/usbd_endpoint_stream_xmc4000.c **** 			if (ErrorCode) 
 812              	 .loc 1 306 0
 813 00d8 FB7D     	 ldrb r3,[r7,#23]
 814 00da 002B     	 cmp r3,#0
 815 00dc 01D0     	 beq .L42
 307:../Dave/Generated/USBD/usb/core/xmc4000/usbd_endpoint_stream_xmc4000.c **** 			{
 308:../Dave/Generated/USBD/usb/core/xmc4000/usbd_endpoint_stream_xmc4000.c **** 				return ErrorCode;
 816              	 .loc 1 308 0
 817 00de FB7D     	 ldrb r3,[r7,#23]
 818 00e0 03E0     	 b .L48
 819              	.L42:
 273:../Dave/Generated/USBD/usb/core/xmc4000/usbd_endpoint_stream_xmc4000.c **** 	{
 820              	 .loc 1 273 0
 821 00e2 7B89     	 ldrh r3,[r7,#10]
 822 00e4 002B     	 cmp r3,#0
 823 00e6 ADD1     	 bne .L49
 309:../Dave/Generated/USBD/usb/core/xmc4000/usbd_endpoint_stream_xmc4000.c **** 			}
 310:../Dave/Generated/USBD/usb/core/xmc4000/usbd_endpoint_stream_xmc4000.c **** 		}
 311:../Dave/Generated/USBD/usb/core/xmc4000/usbd_endpoint_stream_xmc4000.c **** 	}
 312:../Dave/Generated/USBD/usb/core/xmc4000/usbd_endpoint_stream_xmc4000.c **** 	return ENDPOINT_RWSTREAM_NoError;
 824              	 .loc 1 312 0
 825 00e8 0023     	 movs r3,#0
 826              	.L48:
 313:../Dave/Generated/USBD/usb/core/xmc4000/usbd_endpoint_stream_xmc4000.c **** }
 827              	 .loc 1 313 0
 828 00ea 1846     	 mov r0,r3
 829 00ec 2037     	 adds r7,r7,#32
 830              	.LCFI24:
 831              	 .cfi_def_cfa_offset 8
 832 00ee BD46     	 mov sp,r7
 833              	.LCFI25:
 834              	 .cfi_def_cfa_register 13
 835              	 
 836 00f0 80BD     	 pop {r7,pc}
 837              	.L51:
 838 00f2 00BF     	 .align 2
 839              	.L50:
 840 00f4 00000000 	 .word device
 841              	 .cfi_endproc
 842              	.LFE174:
 844              	 .section .text.Endpoint_Write_Control_Stream_LE,"ax",%progbits
 845              	 .align 2
 846              	 .global Endpoint_Write_Control_Stream_LE
 847              	 .thumb
 848              	 .thumb_func
 850              	Endpoint_Write_Control_Stream_LE:
 851              	.LFB175:
 314:../Dave/Generated/USBD/usb/core/xmc4000/usbd_endpoint_stream_xmc4000.c **** 
 315:../Dave/Generated/USBD/usb/core/xmc4000/usbd_endpoint_stream_xmc4000.c **** uint8_t	Endpoint_Write_Control_Stream_LE (const void *const Buffer,
 316:../Dave/Generated/USBD/usb/core/xmc4000/usbd_endpoint_stream_xmc4000.c **** 													uint16_t Length)
 317:../Dave/Generated/USBD/usb/core/xmc4000/usbd_endpoint_stream_xmc4000.c **** {
 852              	 .loc 1 317 0
 853              	 .cfi_startproc
 854              	 
 855              	 
 856 0000 80B5     	 push {r7,lr}
 857              	.LCFI26:
 858              	 .cfi_def_cfa_offset 8
 859              	 .cfi_offset 7,-8
 860              	 .cfi_offset 14,-4
 861 0002 84B0     	 sub sp,sp,#16
 862              	.LCFI27:
 863              	 .cfi_def_cfa_offset 24
 864 0004 00AF     	 add r7,sp,#0
 865              	.LCFI28:
 866              	 .cfi_def_cfa_register 7
 867 0006 7860     	 str r0,[r7,#4]
 868 0008 0B46     	 mov r3,r1
 869 000a 7B80     	 strh r3,[r7,#2]
 318:../Dave/Generated/USBD/usb/core/xmc4000/usbd_endpoint_stream_xmc4000.c **** 	USBD_Endpoint_t *EndPoint = &device.Endpoints[0];
 870              	 .loc 1 318 0
 871 000c 184B     	 ldr r3,.L58
 872 000e BB60     	 str r3,[r7,#8]
 319:../Dave/Generated/USBD/usb/core/xmc4000/usbd_endpoint_stream_xmc4000.c **** 	uint16_t Bytes;
 320:../Dave/Generated/USBD/usb/core/xmc4000/usbd_endpoint_stream_xmc4000.c **** 
 321:../Dave/Generated/USBD/usb/core/xmc4000/usbd_endpoint_stream_xmc4000.c **** 	while (Length) 
 873              	 .loc 1 321 0
 874 0010 26E0     	 b .L53
 875              	.L56:
 322:../Dave/Generated/USBD/usb/core/xmc4000/usbd_endpoint_stream_xmc4000.c **** 	{
 323:../Dave/Generated/USBD/usb/core/xmc4000/usbd_endpoint_stream_xmc4000.c **** 		if (!EndPoint->InInUse) 
 876              	 .loc 1 323 0
 877 0012 BB68     	 ldr r3,[r7,#8]
 878 0014 5B68     	 ldr r3,[r3,#4]
 879 0016 1B09     	 lsrs r3,r3,#4
 880 0018 03F00103 	 and r3,r3,#1
 881 001c DBB2     	 uxtb r3,r3
 882 001e 002B     	 cmp r3,#0
 883 0020 1ED1     	 bne .L53
 324:../Dave/Generated/USBD/usb/core/xmc4000/usbd_endpoint_stream_xmc4000.c **** 		{
 325:../Dave/Generated/USBD/usb/core/xmc4000/usbd_endpoint_stream_xmc4000.c **** 			if (EndPoint->InBufferLength > Length) 
 884              	 .loc 1 325 0
 885 0022 BB68     	 ldr r3,[r7,#8]
 886 0024 1A6A     	 ldr r2,[r3,#32]
 887 0026 7B88     	 ldrh r3,[r7,#2]
 888 0028 9A42     	 cmp r2,r3
 889 002a 02D9     	 bls .L54
 326:../Dave/Generated/USBD/usb/core/xmc4000/usbd_endpoint_stream_xmc4000.c **** 			{
 327:../Dave/Generated/USBD/usb/core/xmc4000/usbd_endpoint_stream_xmc4000.c **** 				Bytes = Length;
 890              	 .loc 1 327 0
 891 002c 7B88     	 ldrh r3,[r7,#2]
 892 002e FB81     	 strh r3,[r7,#14]
 893 0030 02E0     	 b .L55
 894              	.L54:
 328:../Dave/Generated/USBD/usb/core/xmc4000/usbd_endpoint_stream_xmc4000.c **** 			} 
 329:../Dave/Generated/USBD/usb/core/xmc4000/usbd_endpoint_stream_xmc4000.c **** 			else 
 330:../Dave/Generated/USBD/usb/core/xmc4000/usbd_endpoint_stream_xmc4000.c **** 			{
 331:../Dave/Generated/USBD/usb/core/xmc4000/usbd_endpoint_stream_xmc4000.c **** 				Bytes = (uint16_t)EndPoint->InBufferLength;
 895              	 .loc 1 331 0
 896 0032 BB68     	 ldr r3,[r7,#8]
 897 0034 1B6A     	 ldr r3,[r3,#32]
 898 0036 FB81     	 strh r3,[r7,#14]
 899              	.L55:
 332:../Dave/Generated/USBD/usb/core/xmc4000/usbd_endpoint_stream_xmc4000.c **** 			}
 333:../Dave/Generated/USBD/usb/core/xmc4000/usbd_endpoint_stream_xmc4000.c **** 			memcpy(EndPoint->InBuffer,Buffer,Bytes);
 900              	 .loc 1 333 0
 901 0038 BB68     	 ldr r3,[r7,#8]
 902 003a DA69     	 ldr r2,[r3,#28]
 903 003c FB89     	 ldrh r3,[r7,#14]
 904 003e 1046     	 mov r0,r2
 905 0040 7968     	 ldr r1,[r7,#4]
 906 0042 1A46     	 mov r2,r3
 907 0044 FFF7FEFF 	 bl memcpy
 334:../Dave/Generated/USBD/usb/core/xmc4000/usbd_endpoint_stream_xmc4000.c **** 			EndPoint->InBytesAvailable += Bytes;
 908              	 .loc 1 334 0
 909 0048 BB68     	 ldr r3,[r7,#8]
 910 004a 9A69     	 ldr r2,[r3,#24]
 911 004c FB89     	 ldrh r3,[r7,#14]
 912 004e 1A44     	 add r2,r2,r3
 913 0050 BB68     	 ldr r3,[r7,#8]
 914 0052 9A61     	 str r2,[r3,#24]
 335:../Dave/Generated/USBD/usb/core/xmc4000/usbd_endpoint_stream_xmc4000.c **** 			Length -= Bytes;
 915              	 .loc 1 335 0
 916 0054 7A88     	 ldrh r2,[r7,#2]
 917 0056 FB89     	 ldrh r3,[r7,#14]
 918 0058 D31A     	 subs r3,r2,r3
 919 005a 7B80     	 strh r3,[r7,#2]
 336:../Dave/Generated/USBD/usb/core/xmc4000/usbd_endpoint_stream_xmc4000.c **** 
 337:../Dave/Generated/USBD/usb/core/xmc4000/usbd_endpoint_stream_xmc4000.c **** 			Endpoint_ClearIN();
 920              	 .loc 1 337 0
 921 005c FFF7FEFF 	 bl Endpoint_ClearIN
 922              	.L53:
 321:../Dave/Generated/USBD/usb/core/xmc4000/usbd_endpoint_stream_xmc4000.c **** 	{
 923              	 .loc 1 321 0
 924 0060 7B88     	 ldrh r3,[r7,#2]
 925 0062 002B     	 cmp r3,#0
 926 0064 D5D1     	 bne .L56
 338:../Dave/Generated/USBD/usb/core/xmc4000/usbd_endpoint_stream_xmc4000.c **** 		}
 339:../Dave/Generated/USBD/usb/core/xmc4000/usbd_endpoint_stream_xmc4000.c **** 	}
 340:../Dave/Generated/USBD/usb/core/xmc4000/usbd_endpoint_stream_xmc4000.c **** 	return ENDPOINT_RWCSTREAM_NoError;
 927              	 .loc 1 340 0
 928 0066 0023     	 movs r3,#0
 341:../Dave/Generated/USBD/usb/core/xmc4000/usbd_endpoint_stream_xmc4000.c **** }
 929              	 .loc 1 341 0
 930 0068 1846     	 mov r0,r3
 931 006a 1037     	 adds r7,r7,#16
 932              	.LCFI29:
 933              	 .cfi_def_cfa_offset 8
 934 006c BD46     	 mov sp,r7
 935              	.LCFI30:
 936              	 .cfi_def_cfa_register 13
 937              	 
 938 006e 80BD     	 pop {r7,pc}
 939              	.L59:
 940              	 .align 2
 941              	.L58:
 942 0070 04000000 	 .word device+4
 943              	 .cfi_endproc
 944              	.LFE175:
 946              	 .section .text.Endpoint_Write_Control_Stream_BE,"ax",%progbits
 947              	 .align 2
 948              	 .global Endpoint_Write_Control_Stream_BE
 949              	 .thumb
 950              	 .thumb_func
 952              	Endpoint_Write_Control_Stream_BE:
 953              	.LFB176:
 342:../Dave/Generated/USBD/usb/core/xmc4000/usbd_endpoint_stream_xmc4000.c **** 
 343:../Dave/Generated/USBD/usb/core/xmc4000/usbd_endpoint_stream_xmc4000.c **** uint8_t	Endpoint_Write_Control_Stream_BE (const void *const Buffer,
 344:../Dave/Generated/USBD/usb/core/xmc4000/usbd_endpoint_stream_xmc4000.c **** 													uint16_t Length)
 345:../Dave/Generated/USBD/usb/core/xmc4000/usbd_endpoint_stream_xmc4000.c **** {
 954              	 .loc 1 345 0
 955              	 .cfi_startproc
 956              	 
 957              	 
 958 0000 80B5     	 push {r7,lr}
 959              	.LCFI31:
 960              	 .cfi_def_cfa_offset 8
 961              	 .cfi_offset 7,-8
 962              	 .cfi_offset 14,-4
 963 0002 82B0     	 sub sp,sp,#8
 964              	.LCFI32:
 965              	 .cfi_def_cfa_offset 16
 966 0004 00AF     	 add r7,sp,#0
 967              	.LCFI33:
 968              	 .cfi_def_cfa_register 7
 969 0006 7860     	 str r0,[r7,#4]
 970 0008 0B46     	 mov r3,r1
 971 000a 7B80     	 strh r3,[r7,#2]
 346:../Dave/Generated/USBD/usb/core/xmc4000/usbd_endpoint_stream_xmc4000.c **** 	return Endpoint_Write_Control_Stream_LE(Buffer,Length);
 972              	 .loc 1 346 0
 973 000c 7B88     	 ldrh r3,[r7,#2]
 974 000e 7868     	 ldr r0,[r7,#4]
 975 0010 1946     	 mov r1,r3
 976 0012 FFF7FEFF 	 bl Endpoint_Write_Control_Stream_LE
 977 0016 0346     	 mov r3,r0
 347:../Dave/Generated/USBD/usb/core/xmc4000/usbd_endpoint_stream_xmc4000.c **** }
 978              	 .loc 1 347 0
 979 0018 1846     	 mov r0,r3
 980 001a 0837     	 adds r7,r7,#8
 981              	.LCFI34:
 982              	 .cfi_def_cfa_offset 8
 983 001c BD46     	 mov sp,r7
 984              	.LCFI35:
 985              	 .cfi_def_cfa_register 13
 986              	 
 987 001e 80BD     	 pop {r7,pc}
 988              	 .cfi_endproc
 989              	.LFE176:
 991              	 .section .text.Endpoint_Read_Control_Stream_LE,"ax",%progbits
 992              	 .align 2
 993              	 .global Endpoint_Read_Control_Stream_LE
 994              	 .thumb
 995              	 .thumb_func
 997              	Endpoint_Read_Control_Stream_LE:
 998              	.LFB177:
 348:../Dave/Generated/USBD/usb/core/xmc4000/usbd_endpoint_stream_xmc4000.c **** 
 349:../Dave/Generated/USBD/usb/core/xmc4000/usbd_endpoint_stream_xmc4000.c **** uint8_t	Endpoint_Read_Control_Stream_LE (void *const Buffer, uint16_t Length) {
 999              	 .loc 1 349 0
 1000              	 .cfi_startproc
 1001              	 
 1002              	 
 1003 0000 80B5     	 push {r7,lr}
 1004              	.LCFI36:
 1005              	 .cfi_def_cfa_offset 8
 1006              	 .cfi_offset 7,-8
 1007              	 .cfi_offset 14,-4
 1008 0002 84B0     	 sub sp,sp,#16
 1009              	.LCFI37:
 1010              	 .cfi_def_cfa_offset 24
 1011 0004 00AF     	 add r7,sp,#0
 1012              	.LCFI38:
 1013              	 .cfi_def_cfa_register 7
 1014 0006 7860     	 str r0,[r7,#4]
 1015 0008 0B46     	 mov r3,r1
 1016 000a 7B80     	 strh r3,[r7,#2]
 350:../Dave/Generated/USBD/usb/core/xmc4000/usbd_endpoint_stream_xmc4000.c **** 	USBD_Endpoint_t *EndPoint = &device.Endpoints[0];
 1017              	 .loc 1 350 0
 1018 000c 184B     	 ldr r3,.L68
 1019 000e BB60     	 str r3,[r7,#8]
 351:../Dave/Generated/USBD/usb/core/xmc4000/usbd_endpoint_stream_xmc4000.c **** 	uint16_t Bytes;
 352:../Dave/Generated/USBD/usb/core/xmc4000/usbd_endpoint_stream_xmc4000.c **** 
 353:../Dave/Generated/USBD/usb/core/xmc4000/usbd_endpoint_stream_xmc4000.c **** 	while (Length) 
 1020              	 .loc 1 353 0
 1021 0010 26E0     	 b .L63
 1022              	.L66:
 354:../Dave/Generated/USBD/usb/core/xmc4000/usbd_endpoint_stream_xmc4000.c **** 	{
 355:../Dave/Generated/USBD/usb/core/xmc4000/usbd_endpoint_stream_xmc4000.c **** 		if (EndPoint->IsOutRecieved) 
 1023              	 .loc 1 355 0
 1024 0012 BB68     	 ldr r3,[r7,#8]
 1025 0014 5B68     	 ldr r3,[r3,#4]
 1026 0016 5B09     	 lsrs r3,r3,#5
 1027 0018 03F00103 	 and r3,r3,#1
 1028 001c DBB2     	 uxtb r3,r3
 1029 001e 002B     	 cmp r3,#0
 1030 0020 1ED0     	 beq .L63
 356:../Dave/Generated/USBD/usb/core/xmc4000/usbd_endpoint_stream_xmc4000.c **** 		{
 357:../Dave/Generated/USBD/usb/core/xmc4000/usbd_endpoint_stream_xmc4000.c **** 			if(EndPoint->OutBytesAvailable > Length)
 1031              	 .loc 1 357 0
 1032 0022 BB68     	 ldr r3,[r7,#8]
 1033 0024 9A68     	 ldr r2,[r3,#8]
 1034 0026 7B88     	 ldrh r3,[r7,#2]
 1035 0028 9A42     	 cmp r2,r3
 1036 002a 02D9     	 bls .L64
 358:../Dave/Generated/USBD/usb/core/xmc4000/usbd_endpoint_stream_xmc4000.c **** 			{
 359:../Dave/Generated/USBD/usb/core/xmc4000/usbd_endpoint_stream_xmc4000.c **** 				Bytes = Length;
 1037              	 .loc 1 359 0
 1038 002c 7B88     	 ldrh r3,[r7,#2]
 1039 002e FB81     	 strh r3,[r7,#14]
 1040 0030 02E0     	 b .L65
 1041              	.L64:
 360:../Dave/Generated/USBD/usb/core/xmc4000/usbd_endpoint_stream_xmc4000.c **** 			}
 361:../Dave/Generated/USBD/usb/core/xmc4000/usbd_endpoint_stream_xmc4000.c **** 			else
 362:../Dave/Generated/USBD/usb/core/xmc4000/usbd_endpoint_stream_xmc4000.c **** 			{
 363:../Dave/Generated/USBD/usb/core/xmc4000/usbd_endpoint_stream_xmc4000.c **** 				Bytes = (uint16_t)EndPoint->OutBytesAvailable;
 1042              	 .loc 1 363 0
 1043 0032 BB68     	 ldr r3,[r7,#8]
 1044 0034 9B68     	 ldr r3,[r3,#8]
 1045 0036 FB81     	 strh r3,[r7,#14]
 1046              	.L65:
 364:../Dave/Generated/USBD/usb/core/xmc4000/usbd_endpoint_stream_xmc4000.c **** 			}
 365:../Dave/Generated/USBD/usb/core/xmc4000/usbd_endpoint_stream_xmc4000.c **** 
 366:../Dave/Generated/USBD/usb/core/xmc4000/usbd_endpoint_stream_xmc4000.c **** 			memcpy(Buffer,EndPoint->OutBuffer,Bytes);
 1047              	 .loc 1 366 0
 1048 0038 BB68     	 ldr r3,[r7,#8]
 1049 003a 1A69     	 ldr r2,[r3,#16]
 1050 003c FB89     	 ldrh r3,[r7,#14]
 1051 003e 7868     	 ldr r0,[r7,#4]
 1052 0040 1146     	 mov r1,r2
 1053 0042 1A46     	 mov r2,r3
 1054 0044 FFF7FEFF 	 bl memcpy
 367:../Dave/Generated/USBD/usb/core/xmc4000/usbd_endpoint_stream_xmc4000.c **** 			EndPoint->OutBytesAvailable -= Bytes;
 1055              	 .loc 1 367 0
 1056 0048 BB68     	 ldr r3,[r7,#8]
 1057 004a 9A68     	 ldr r2,[r3,#8]
 1058 004c FB89     	 ldrh r3,[r7,#14]
 1059 004e D21A     	 subs r2,r2,r3
 1060 0050 BB68     	 ldr r3,[r7,#8]
 1061 0052 9A60     	 str r2,[r3,#8]
 368:../Dave/Generated/USBD/usb/core/xmc4000/usbd_endpoint_stream_xmc4000.c **** 			Length -= Bytes;
 1062              	 .loc 1 368 0
 1063 0054 7A88     	 ldrh r2,[r7,#2]
 1064 0056 FB89     	 ldrh r3,[r7,#14]
 1065 0058 D31A     	 subs r3,r2,r3
 1066 005a 7B80     	 strh r3,[r7,#2]
 369:../Dave/Generated/USBD/usb/core/xmc4000/usbd_endpoint_stream_xmc4000.c **** 
 370:../Dave/Generated/USBD/usb/core/xmc4000/usbd_endpoint_stream_xmc4000.c **** 			Endpoint_ClearOUT();
 1067              	 .loc 1 370 0
 1068 005c FFF7FEFF 	 bl Endpoint_ClearOUT
 1069              	.L63:
 353:../Dave/Generated/USBD/usb/core/xmc4000/usbd_endpoint_stream_xmc4000.c **** 	{
 1070              	 .loc 1 353 0
 1071 0060 7B88     	 ldrh r3,[r7,#2]
 1072 0062 002B     	 cmp r3,#0
 1073 0064 D5D1     	 bne .L66
 371:../Dave/Generated/USBD/usb/core/xmc4000/usbd_endpoint_stream_xmc4000.c **** 		}
 372:../Dave/Generated/USBD/usb/core/xmc4000/usbd_endpoint_stream_xmc4000.c **** 	}
 373:../Dave/Generated/USBD/usb/core/xmc4000/usbd_endpoint_stream_xmc4000.c **** 	return ENDPOINT_RWCSTREAM_NoError;
 1074              	 .loc 1 373 0
 1075 0066 0023     	 movs r3,#0
 374:../Dave/Generated/USBD/usb/core/xmc4000/usbd_endpoint_stream_xmc4000.c **** }
 1076              	 .loc 1 374 0
 1077 0068 1846     	 mov r0,r3
 1078 006a 1037     	 adds r7,r7,#16
 1079              	.LCFI39:
 1080              	 .cfi_def_cfa_offset 8
 1081 006c BD46     	 mov sp,r7
 1082              	.LCFI40:
 1083              	 .cfi_def_cfa_register 13
 1084              	 
 1085 006e 80BD     	 pop {r7,pc}
 1086              	.L69:
 1087              	 .align 2
 1088              	.L68:
 1089 0070 04000000 	 .word device+4
 1090              	 .cfi_endproc
 1091              	.LFE177:
 1093              	 .section .text.Endpoint_Read_Control_Stream_BE,"ax",%progbits
 1094              	 .align 2
 1095              	 .global Endpoint_Read_Control_Stream_BE
 1096              	 .thumb
 1097              	 .thumb_func
 1099              	Endpoint_Read_Control_Stream_BE:
 1100              	.LFB178:
 375:../Dave/Generated/USBD/usb/core/xmc4000/usbd_endpoint_stream_xmc4000.c **** 
 376:../Dave/Generated/USBD/usb/core/xmc4000/usbd_endpoint_stream_xmc4000.c **** uint8_t	Endpoint_Read_Control_Stream_BE (void *const Buffer, uint16_t Length) 
 377:../Dave/Generated/USBD/usb/core/xmc4000/usbd_endpoint_stream_xmc4000.c **** {
 1101              	 .loc 1 377 0
 1102              	 .cfi_startproc
 1103              	 
 1104              	 
 1105 0000 80B5     	 push {r7,lr}
 1106              	.LCFI41:
 1107              	 .cfi_def_cfa_offset 8
 1108              	 .cfi_offset 7,-8
 1109              	 .cfi_offset 14,-4
 1110 0002 82B0     	 sub sp,sp,#8
 1111              	.LCFI42:
 1112              	 .cfi_def_cfa_offset 16
 1113 0004 00AF     	 add r7,sp,#0
 1114              	.LCFI43:
 1115              	 .cfi_def_cfa_register 7
 1116 0006 7860     	 str r0,[r7,#4]
 1117 0008 0B46     	 mov r3,r1
 1118 000a 7B80     	 strh r3,[r7,#2]
 378:../Dave/Generated/USBD/usb/core/xmc4000/usbd_endpoint_stream_xmc4000.c **** 	return Endpoint_Read_Control_Stream_LE(Buffer,Length);
 1119              	 .loc 1 378 0
 1120 000c 7B88     	 ldrh r3,[r7,#2]
 1121 000e 7868     	 ldr r0,[r7,#4]
 1122 0010 1946     	 mov r1,r3
 1123 0012 FFF7FEFF 	 bl Endpoint_Read_Control_Stream_LE
 1124 0016 0346     	 mov r3,r0
 379:../Dave/Generated/USBD/usb/core/xmc4000/usbd_endpoint_stream_xmc4000.c **** }
 1125              	 .loc 1 379 0
 1126 0018 1846     	 mov r0,r3
 1127 001a 0837     	 adds r7,r7,#8
 1128              	.LCFI44:
 1129              	 .cfi_def_cfa_offset 8
 1130 001c BD46     	 mov sp,r7
 1131              	.LCFI45:
 1132              	 .cfi_def_cfa_register 13
 1133              	 
 1134 001e 80BD     	 pop {r7,pc}
 1135              	 .cfi_endproc
 1136              	.LFE178:
 1138              	 .section .text.Endpoint_Null_Stream,"ax",%progbits
 1139              	 .align 2
 1140              	 .global Endpoint_Null_Stream
 1141              	 .thumb
 1142              	 .thumb_func
 1144              	Endpoint_Null_Stream:
 1145              	.LFB179:
 380:../Dave/Generated/USBD/usb/core/xmc4000/usbd_endpoint_stream_xmc4000.c **** 
 381:../Dave/Generated/USBD/usb/core/xmc4000/usbd_endpoint_stream_xmc4000.c **** uint8_t Endpoint_Null_Stream(uint16_t Length,uint16_t* const BytesProcessed)
 382:../Dave/Generated/USBD/usb/core/xmc4000/usbd_endpoint_stream_xmc4000.c **** {
 1146              	 .loc 1 382 0
 1147              	 .cfi_startproc
 1148              	 
 1149              	 
 1150 0000 80B5     	 push {r7,lr}
 1151              	.LCFI46:
 1152              	 .cfi_def_cfa_offset 8
 1153              	 .cfi_offset 7,-8
 1154              	 .cfi_offset 14,-4
 1155 0002 86B0     	 sub sp,sp,#24
 1156              	.LCFI47:
 1157              	 .cfi_def_cfa_offset 32
 1158 0004 00AF     	 add r7,sp,#0
 1159              	.LCFI48:
 1160              	 .cfi_def_cfa_register 7
 1161 0006 0346     	 mov r3,r0
 1162 0008 3960     	 str r1,[r7]
 1163 000a FB80     	 strh r3,[r7,#6]
 383:../Dave/Generated/USBD/usb/core/xmc4000/usbd_endpoint_stream_xmc4000.c **** 	USBD_Endpoint_t* ep = &device.Endpoints[device.CurrentEndpoint];
 1164              	 .loc 1 383 0
 1165 000c 384B     	 ldr r3,.L82
 1166 000e 93F83C31 	 ldrb r3,[r3,#316]
 1167 0012 1A46     	 mov r2,r3
 1168 0014 2C23     	 movs r3,#44
 1169 0016 03FB02F3 	 mul r3,r3,r2
 1170 001a 354A     	 ldr r2,.L82
 1171 001c 1344     	 add r3,r3,r2
 1172 001e 0433     	 adds r3,r3,#4
 1173 0020 3B61     	 str r3,[r7,#16]
 384:../Dave/Generated/USBD/usb/core/xmc4000/usbd_endpoint_stream_xmc4000.c **** 	uint16_t Bytes = 0;
 1174              	 .loc 1 384 0
 1175 0022 0023     	 movs r3,#0
 1176 0024 FB82     	 strh r3,[r7,#22]
 385:../Dave/Generated/USBD/usb/core/xmc4000/usbd_endpoint_stream_xmc4000.c **** 	uint16_t BytesTransfered = 0;
 1177              	 .loc 1 385 0
 1178 0026 0023     	 movs r3,#0
 1179 0028 BB82     	 strh r3,[r7,#20]
 386:../Dave/Generated/USBD/usb/core/xmc4000/usbd_endpoint_stream_xmc4000.c **** 	uint8_t ErrorCode;
 387:../Dave/Generated/USBD/usb/core/xmc4000/usbd_endpoint_stream_xmc4000.c **** 
 388:../Dave/Generated/USBD/usb/core/xmc4000/usbd_endpoint_stream_xmc4000.c **** 	if (BytesProcessed!=NULL) 
 1180              	 .loc 1 388 0
 1181 002a 3B68     	 ldr r3,[r7]
 1182 002c 002B     	 cmp r3,#0
 1183 002e 07D0     	 beq .L73
 389:../Dave/Generated/USBD/usb/core/xmc4000/usbd_endpoint_stream_xmc4000.c **** 	{
 390:../Dave/Generated/USBD/usb/core/xmc4000/usbd_endpoint_stream_xmc4000.c **** 		Length -= *BytesProcessed;
 1184              	 .loc 1 390 0
 1185 0030 3B68     	 ldr r3,[r7]
 1186 0032 1B88     	 ldrh r3,[r3]
 1187 0034 FA88     	 ldrh r2,[r7,#6]
 1188 0036 D31A     	 subs r3,r2,r3
 1189 0038 FB80     	 strh r3,[r7,#6]
 391:../Dave/Generated/USBD/usb/core/xmc4000/usbd_endpoint_stream_xmc4000.c **** 		BytesTransfered = *BytesProcessed;
 1190              	 .loc 1 391 0
 1191 003a 3B68     	 ldr r3,[r7]
 1192 003c 1B88     	 ldrh r3,[r3]
 1193 003e BB82     	 strh r3,[r7,#20]
 1194              	.L73:
 392:../Dave/Generated/USBD/usb/core/xmc4000/usbd_endpoint_stream_xmc4000.c **** 	}
 393:../Dave/Generated/USBD/usb/core/xmc4000/usbd_endpoint_stream_xmc4000.c **** 
 394:../Dave/Generated/USBD/usb/core/xmc4000/usbd_endpoint_stream_xmc4000.c **** 	while (Length) 
 1195              	 .loc 1 394 0
 1196 0040 4DE0     	 b .L74
 1197              	.L81:
 395:../Dave/Generated/USBD/usb/core/xmc4000/usbd_endpoint_stream_xmc4000.c **** 	{
 396:../Dave/Generated/USBD/usb/core/xmc4000/usbd_endpoint_stream_xmc4000.c **** 		if (ep->InInUse)
 1198              	 .loc 1 396 0
 1199 0042 3B69     	 ldr r3,[r7,#16]
 1200 0044 5B68     	 ldr r3,[r3,#4]
 1201 0046 1B09     	 lsrs r3,r3,#4
 1202 0048 03F00103 	 and r3,r3,#1
 1203 004c DBB2     	 uxtb r3,r3
 1204 004e 002B     	 cmp r3,#0
 1205 0050 00D0     	 beq .L75
 397:../Dave/Generated/USBD/usb/core/xmc4000/usbd_endpoint_stream_xmc4000.c **** 		{
 398:../Dave/Generated/USBD/usb/core/xmc4000/usbd_endpoint_stream_xmc4000.c **** 			continue;
 1206              	 .loc 1 398 0
 1207 0052 44E0     	 b .L74
 1208              	.L75:
 399:../Dave/Generated/USBD/usb/core/xmc4000/usbd_endpoint_stream_xmc4000.c **** 		}
 400:../Dave/Generated/USBD/usb/core/xmc4000/usbd_endpoint_stream_xmc4000.c **** 		if (Endpoint_IsReadWriteAllowed()) 
 1209              	 .loc 1 400 0
 1210 0054 FFF7FEFF 	 bl Endpoint_IsReadWriteAllowed
 1211 0058 0346     	 mov r3,r0
 1212 005a 002B     	 cmp r3,#0
 1213 005c 2CD0     	 beq .L76
 401:../Dave/Generated/USBD/usb/core/xmc4000/usbd_endpoint_stream_xmc4000.c **** 		{
 402:../Dave/Generated/USBD/usb/core/xmc4000/usbd_endpoint_stream_xmc4000.c **** 			if((ep->InBufferLength - ep->InBytesAvailable)  > Length)
 1214              	 .loc 1 402 0
 1215 005e 3B69     	 ldr r3,[r7,#16]
 1216 0060 1A6A     	 ldr r2,[r3,#32]
 1217 0062 3B69     	 ldr r3,[r7,#16]
 1218 0064 9B69     	 ldr r3,[r3,#24]
 1219 0066 D21A     	 subs r2,r2,r3
 1220 0068 FB88     	 ldrh r3,[r7,#6]
 1221 006a 9A42     	 cmp r2,r3
 1222 006c 02D9     	 bls .L77
 403:../Dave/Generated/USBD/usb/core/xmc4000/usbd_endpoint_stream_xmc4000.c **** 			{
 404:../Dave/Generated/USBD/usb/core/xmc4000/usbd_endpoint_stream_xmc4000.c **** 				Bytes = Length;
 1223              	 .loc 1 404 0
 1224 006e FB88     	 ldrh r3,[r7,#6]
 1225 0070 FB82     	 strh r3,[r7,#22]
 1226 0072 07E0     	 b .L78
 1227              	.L77:
 405:../Dave/Generated/USBD/usb/core/xmc4000/usbd_endpoint_stream_xmc4000.c **** 			}
 406:../Dave/Generated/USBD/usb/core/xmc4000/usbd_endpoint_stream_xmc4000.c **** 			else
 407:../Dave/Generated/USBD/usb/core/xmc4000/usbd_endpoint_stream_xmc4000.c **** 			{
 408:../Dave/Generated/USBD/usb/core/xmc4000/usbd_endpoint_stream_xmc4000.c **** 				Bytes = (ep->InBufferLength - ep->InBytesAvailable);
 1228              	 .loc 1 408 0
 1229 0074 3B69     	 ldr r3,[r7,#16]
 1230 0076 1B6A     	 ldr r3,[r3,#32]
 1231 0078 9AB2     	 uxth r2,r3
 1232 007a 3B69     	 ldr r3,[r7,#16]
 1233 007c 9B69     	 ldr r3,[r3,#24]
 1234 007e 9BB2     	 uxth r3,r3
 1235 0080 D31A     	 subs r3,r2,r3
 1236 0082 FB82     	 strh r3,[r7,#22]
 1237              	.L78:
 409:../Dave/Generated/USBD/usb/core/xmc4000/usbd_endpoint_stream_xmc4000.c **** 			}
 410:../Dave/Generated/USBD/usb/core/xmc4000/usbd_endpoint_stream_xmc4000.c **** 
 411:../Dave/Generated/USBD/usb/core/xmc4000/usbd_endpoint_stream_xmc4000.c **** 			memset(ep->InBuffer + ep->InBytesAvailable,0x0,Bytes);
 1238              	 .loc 1 411 0
 1239 0084 3B69     	 ldr r3,[r7,#16]
 1240 0086 DA69     	 ldr r2,[r3,#28]
 1241 0088 3B69     	 ldr r3,[r7,#16]
 1242 008a 9B69     	 ldr r3,[r3,#24]
 1243 008c 1A44     	 add r2,r2,r3
 1244 008e FB8A     	 ldrh r3,[r7,#22]
 1245 0090 1046     	 mov r0,r2
 1246 0092 0021     	 movs r1,#0
 1247 0094 1A46     	 mov r2,r3
 1248 0096 FFF7FEFF 	 bl memset
 412:../Dave/Generated/USBD/usb/core/xmc4000/usbd_endpoint_stream_xmc4000.c **** 			ep->InBytesAvailable += Bytes;
 1249              	 .loc 1 412 0
 1250 009a 3B69     	 ldr r3,[r7,#16]
 1251 009c 9A69     	 ldr r2,[r3,#24]
 1252 009e FB8A     	 ldrh r3,[r7,#22]
 1253 00a0 1A44     	 add r2,r2,r3
 1254 00a2 3B69     	 ldr r3,[r7,#16]
 1255 00a4 9A61     	 str r2,[r3,#24]
 413:../Dave/Generated/USBD/usb/core/xmc4000/usbd_endpoint_stream_xmc4000.c **** 			BytesTransfered += Bytes;
 1256              	 .loc 1 413 0
 1257 00a6 BA8A     	 ldrh r2,[r7,#20]
 1258 00a8 FB8A     	 ldrh r3,[r7,#22]
 1259 00aa 1344     	 add r3,r3,r2
 1260 00ac BB82     	 strh r3,[r7,#20]
 414:../Dave/Generated/USBD/usb/core/xmc4000/usbd_endpoint_stream_xmc4000.c **** 			Length -= Bytes;
 1261              	 .loc 1 414 0
 1262 00ae FA88     	 ldrh r2,[r7,#6]
 1263 00b0 FB8A     	 ldrh r3,[r7,#22]
 1264 00b2 D31A     	 subs r3,r2,r3
 1265 00b4 FB80     	 strh r3,[r7,#6]
 1266 00b6 12E0     	 b .L74
 1267              	.L76:
 415:../Dave/Generated/USBD/usb/core/xmc4000/usbd_endpoint_stream_xmc4000.c **** 		}
 416:../Dave/Generated/USBD/usb/core/xmc4000/usbd_endpoint_stream_xmc4000.c **** 		else 
 417:../Dave/Generated/USBD/usb/core/xmc4000/usbd_endpoint_stream_xmc4000.c **** 		{
 418:../Dave/Generated/USBD/usb/core/xmc4000/usbd_endpoint_stream_xmc4000.c **** 			Endpoint_ClearIN();
 1268              	 .loc 1 418 0
 1269 00b8 FFF7FEFF 	 bl Endpoint_ClearIN
 419:../Dave/Generated/USBD/usb/core/xmc4000/usbd_endpoint_stream_xmc4000.c **** 			if (BytesProcessed!=NULL) 
 1270              	 .loc 1 419 0
 1271 00bc 3B68     	 ldr r3,[r7]
 1272 00be 002B     	 cmp r3,#0
 1273 00c0 04D0     	 beq .L79
 420:../Dave/Generated/USBD/usb/core/xmc4000/usbd_endpoint_stream_xmc4000.c **** 			{
 421:../Dave/Generated/USBD/usb/core/xmc4000/usbd_endpoint_stream_xmc4000.c **** 				*BytesProcessed = BytesTransfered;
 1274              	 .loc 1 421 0
 1275 00c2 3B68     	 ldr r3,[r7]
 1276 00c4 BA8A     	 ldrh r2,[r7,#20]
 1277 00c6 1A80     	 strh r2,[r3]
 422:../Dave/Generated/USBD/usb/core/xmc4000/usbd_endpoint_stream_xmc4000.c **** 				return ENDPOINT_RWSTREAM_IncompleteTransfer;
 1278              	 .loc 1 422 0
 1279 00c8 0523     	 movs r3,#5
 1280 00ca 0CE0     	 b .L80
 1281              	.L79:
 423:../Dave/Generated/USBD/usb/core/xmc4000/usbd_endpoint_stream_xmc4000.c **** 			}
 424:../Dave/Generated/USBD/usb/core/xmc4000/usbd_endpoint_stream_xmc4000.c **** 
 425:../Dave/Generated/USBD/usb/core/xmc4000/usbd_endpoint_stream_xmc4000.c **** 			ErrorCode = Endpoint_WaitUntilReady();
 1282              	 .loc 1 425 0
 1283 00cc FFF7FEFF 	 bl Endpoint_WaitUntilReady
 1284 00d0 0346     	 mov r3,r0
 1285 00d2 FB73     	 strb r3,[r7,#15]
 426:../Dave/Generated/USBD/usb/core/xmc4000/usbd_endpoint_stream_xmc4000.c **** 			if (ErrorCode) 
 1286              	 .loc 1 426 0
 1287 00d4 FB7B     	 ldrb r3,[r7,#15]
 1288 00d6 002B     	 cmp r3,#0
 1289 00d8 01D0     	 beq .L74
 427:../Dave/Generated/USBD/usb/core/xmc4000/usbd_endpoint_stream_xmc4000.c **** 			{
 428:../Dave/Generated/USBD/usb/core/xmc4000/usbd_endpoint_stream_xmc4000.c **** 				return ErrorCode;
 1290              	 .loc 1 428 0
 1291 00da FB7B     	 ldrb r3,[r7,#15]
 1292 00dc 03E0     	 b .L80
 1293              	.L74:
 394:../Dave/Generated/USBD/usb/core/xmc4000/usbd_endpoint_stream_xmc4000.c **** 	{
 1294              	 .loc 1 394 0
 1295 00de FB88     	 ldrh r3,[r7,#6]
 1296 00e0 002B     	 cmp r3,#0
 1297 00e2 AED1     	 bne .L81
 429:../Dave/Generated/USBD/usb/core/xmc4000/usbd_endpoint_stream_xmc4000.c **** 			}
 430:../Dave/Generated/USBD/usb/core/xmc4000/usbd_endpoint_stream_xmc4000.c **** 		}
 431:../Dave/Generated/USBD/usb/core/xmc4000/usbd_endpoint_stream_xmc4000.c **** 	}
 432:../Dave/Generated/USBD/usb/core/xmc4000/usbd_endpoint_stream_xmc4000.c **** 	return ENDPOINT_RWSTREAM_NoError;
 1298              	 .loc 1 432 0
 1299 00e4 0023     	 movs r3,#0
 1300              	.L80:
 433:../Dave/Generated/USBD/usb/core/xmc4000/usbd_endpoint_stream_xmc4000.c **** }
 1301              	 .loc 1 433 0
 1302 00e6 1846     	 mov r0,r3
 1303 00e8 1837     	 adds r7,r7,#24
 1304              	.LCFI49:
 1305              	 .cfi_def_cfa_offset 8
 1306 00ea BD46     	 mov sp,r7
 1307              	.LCFI50:
 1308              	 .cfi_def_cfa_register 13
 1309              	 
 1310 00ec 80BD     	 pop {r7,pc}
 1311              	.L83:
 1312 00ee 00BF     	 .align 2
 1313              	.L82:
 1314 00f0 00000000 	 .word device
 1315              	 .cfi_endproc
 1316              	.LFE179:
 1318              	 .text
 1319              	.Letext0:
 1320              	 .file 2 "e:\\davev4\\dave-4.1.4\\eclipse\\arm-gcc-49\\arm-none-eabi\\include\\machine\\_default_types.h"
 1321              	 .file 3 "e:\\davev4\\dave-4.1.4\\eclipse\\arm-gcc-49\\arm-none-eabi\\include\\stdint.h"
 1322              	 .file 4 "D:\\dholler\\Dokumente\\uni\\bus\\xmc\\usbCanNode/Libraries/CMSIS/Infineon/XMC4700_series/Include/XMC4700.h"
 1323              	 .file 5 "D:\\dholler\\Dokumente\\uni\\bus\\xmc\\usbCanNode\\Libraries\\XMCLib\\inc/xmc_usbd_regs.h"
 1324              	 .file 6 "D:\\dholler\\Dokumente\\uni\\bus\\xmc\\usbCanNode\\Libraries\\XMCLib\\inc/xmc_usbd.h"
 1325              	 .file 7 "../Dave/Generated/USBD/usb/core/xmc4000/../../../usbd.h"
 1326              	 .file 8 "../Dave/Generated/USBD/usb/core/xmc4000/../endpoint_stream.h"
 1327              	 .file 9 "D:\\dholler\\Dokumente\\uni\\bus\\xmc\\usbCanNode/Libraries/CMSIS/Include/core_cm4.h"
 1328              	 .file 10 "D:\\dholler\\Dokumente\\uni\\bus\\xmc\\usbCanNode/Libraries/CMSIS/Infineon/XMC4700_series/Include/system_XMC4700.h"
 1329              	 .file 11 "../Dave/Generated/USBD/usb/core/xmc4000/../../../usbd_extern.h"