   1              	 .syntax unified
   2              	 .cpu cortex-m4
   3              	 .eabi_attribute 27,3
   4              	 .fpu fpv4-sp-d16
   5              	 .eabi_attribute 20,1
   6              	 .eabi_attribute 21,1
   7              	 .eabi_attribute 23,3
   8              	 .eabi_attribute 24,1
   9              	 .eabi_attribute 25,1
  10              	 .eabi_attribute 26,1
  11              	 .eabi_attribute 30,6
  12              	 .eabi_attribute 34,1
  13              	 .eabi_attribute 18,4
  14              	 .thumb
  15              	 .file "cpu_ctrl_xmc4.c"
  16              	 .text
  17              	.Ltext0:
  18              	 .cfi_sections .debug_frame
  19              	 .section .text.CPU_CTRL_XMC4_GetAppVersion,"ax",%progbits
  20              	 .align 2
  21              	 .global CPU_CTRL_XMC4_GetAppVersion
  22              	 .thumb
  23              	 .thumb_func
  25              	CPU_CTRL_XMC4_GetAppVersion:
  26              	.LFB128:
  27              	 .file 1 "../Dave/Generated/CPU_CTRL_XMC4/cpu_ctrl_xmc4.c"
   1:../Dave/Generated/CPU_CTRL_XMC4/cpu_ctrl_xmc4.c **** /**
   2:../Dave/Generated/CPU_CTRL_XMC4/cpu_ctrl_xmc4.c ****  * @file cpu_ctrl_xmc4.c
   3:../Dave/Generated/CPU_CTRL_XMC4/cpu_ctrl_xmc4.c ****  * @date 2015-08-31
   4:../Dave/Generated/CPU_CTRL_XMC4/cpu_ctrl_xmc4.c ****  * NOTE:
   5:../Dave/Generated/CPU_CTRL_XMC4/cpu_ctrl_xmc4.c ****  * This file is generated by DAVE. Any manual modification done to this file will be lost when the 
   6:../Dave/Generated/CPU_CTRL_XMC4/cpu_ctrl_xmc4.c ****  */
   7:../Dave/Generated/CPU_CTRL_XMC4/cpu_ctrl_xmc4.c **** /**
   8:../Dave/Generated/CPU_CTRL_XMC4/cpu_ctrl_xmc4.c ****  * @cond
   9:../Dave/Generated/CPU_CTRL_XMC4/cpu_ctrl_xmc4.c ****  **************************************************************************************************
  10:../Dave/Generated/CPU_CTRL_XMC4/cpu_ctrl_xmc4.c ****  * CPU_CTRL_XMC4 v4.0.12 - Sets the priority grouping for NVIC
  11:../Dave/Generated/CPU_CTRL_XMC4/cpu_ctrl_xmc4.c ****  *
  12:../Dave/Generated/CPU_CTRL_XMC4/cpu_ctrl_xmc4.c ****  * Copyright (c) 2015, Infineon Technologies AG
  13:../Dave/Generated/CPU_CTRL_XMC4/cpu_ctrl_xmc4.c ****  * All rights reserved.
  14:../Dave/Generated/CPU_CTRL_XMC4/cpu_ctrl_xmc4.c ****  *
  15:../Dave/Generated/CPU_CTRL_XMC4/cpu_ctrl_xmc4.c ****  * Redistribution and use in source and binary forms, with or without modification,are permitted pr
  16:../Dave/Generated/CPU_CTRL_XMC4/cpu_ctrl_xmc4.c ****  * following conditions are met:
  17:../Dave/Generated/CPU_CTRL_XMC4/cpu_ctrl_xmc4.c ****  *
  18:../Dave/Generated/CPU_CTRL_XMC4/cpu_ctrl_xmc4.c ****  *   Redistributions of source code must retain the above copyright notice, this list of conditions
  19:../Dave/Generated/CPU_CTRL_XMC4/cpu_ctrl_xmc4.c ****  *   disclaimer.
  20:../Dave/Generated/CPU_CTRL_XMC4/cpu_ctrl_xmc4.c ****  *
  21:../Dave/Generated/CPU_CTRL_XMC4/cpu_ctrl_xmc4.c ****  *   Redistributions in binary form must reproduce the above copyright notice, this list of conditi
  22:../Dave/Generated/CPU_CTRL_XMC4/cpu_ctrl_xmc4.c ****  *   following disclaimer in the documentation and/or other materials provided with the distributio
  23:../Dave/Generated/CPU_CTRL_XMC4/cpu_ctrl_xmc4.c ****  *
  24:../Dave/Generated/CPU_CTRL_XMC4/cpu_ctrl_xmc4.c ****  *   Neither the name of the copyright holders nor the names of its contributors may be used to end
  25:../Dave/Generated/CPU_CTRL_XMC4/cpu_ctrl_xmc4.c ****  *   products derived from this software without specific prior written permission.
  26:../Dave/Generated/CPU_CTRL_XMC4/cpu_ctrl_xmc4.c ****  *
  27:../Dave/Generated/CPU_CTRL_XMC4/cpu_ctrl_xmc4.c ****  * THIS SOFTWARE IS PROVIDED BY THE COPYRIGHT HOLDERS AND CONTRIBUTORS "AS IS" AND ANY EXPRESS OR I
  28:../Dave/Generated/CPU_CTRL_XMC4/cpu_ctrl_xmc4.c ****  * INCLUDING, BUT NOT LIMITED TO, THE IMPLIED WARRANTIES OF MERCHANTABILITY AND FITNESS FOR A PARTI
  29:../Dave/Generated/CPU_CTRL_XMC4/cpu_ctrl_xmc4.c ****  * DISCLAIMED. IN NO EVENT SHALL THE COPYRIGHT HOLDER OR CONTRIBUTORS BE LIABLE  FOR ANY DIRECT, IN
  30:../Dave/Generated/CPU_CTRL_XMC4/cpu_ctrl_xmc4.c ****  * SPECIAL, EXEMPLARY, OR CONSEQUENTIAL DAMAGES (INCLUDING, BUT NOT LIMITED TO, PROCUREMENT OF SUBS
  31:../Dave/Generated/CPU_CTRL_XMC4/cpu_ctrl_xmc4.c ****  * SERVICES; LOSS OF USE, DATA, OR PROFITS; OR BUSINESS INTERRUPTION) HOWEVER CAUSED AND ON ANY THE
  32:../Dave/Generated/CPU_CTRL_XMC4/cpu_ctrl_xmc4.c ****  * WHETHER IN CONTRACT, STRICT LIABILITY,OR TORT (INCLUDING NEGLIGENCE OR OTHERWISE) ARISING IN ANY
  33:../Dave/Generated/CPU_CTRL_XMC4/cpu_ctrl_xmc4.c ****  * USE OF THIS SOFTWARE, EVEN IF ADVISED OF THE POSSIBILITY OF SUCH DAMAGE.
  34:../Dave/Generated/CPU_CTRL_XMC4/cpu_ctrl_xmc4.c ****  *
  35:../Dave/Generated/CPU_CTRL_XMC4/cpu_ctrl_xmc4.c ****  * To improve the quality of the software, users are encouraged to share modifications, enhancement
  36:../Dave/Generated/CPU_CTRL_XMC4/cpu_ctrl_xmc4.c ****  * with Infineon Technologies AG (dave@infineon.com).
  37:../Dave/Generated/CPU_CTRL_XMC4/cpu_ctrl_xmc4.c ****  **************************************************************************************************
  38:../Dave/Generated/CPU_CTRL_XMC4/cpu_ctrl_xmc4.c ****  *
  39:../Dave/Generated/CPU_CTRL_XMC4/cpu_ctrl_xmc4.c ****  * Change History
  40:../Dave/Generated/CPU_CTRL_XMC4/cpu_ctrl_xmc4.c ****  * --------------
  41:../Dave/Generated/CPU_CTRL_XMC4/cpu_ctrl_xmc4.c ****  *
  42:../Dave/Generated/CPU_CTRL_XMC4/cpu_ctrl_xmc4.c ****  * 2015-02-16:
  43:../Dave/Generated/CPU_CTRL_XMC4/cpu_ctrl_xmc4.c ****  *     - Initial version<br>
  44:../Dave/Generated/CPU_CTRL_XMC4/cpu_ctrl_xmc4.c ****  * 2015-08-31:
  45:../Dave/Generated/CPU_CTRL_XMC4/cpu_ctrl_xmc4.c ****  *     - Added hard fault handler
  46:../Dave/Generated/CPU_CTRL_XMC4/cpu_ctrl_xmc4.c ****  *     - Added CPU_CTRL_XMC4_MPU_Enable, CPU_CTRL_XMC4_MPU_Disable APIs
  47:../Dave/Generated/CPU_CTRL_XMC4/cpu_ctrl_xmc4.c ****  * @endcond
  48:../Dave/Generated/CPU_CTRL_XMC4/cpu_ctrl_xmc4.c ****  *
  49:../Dave/Generated/CPU_CTRL_XMC4/cpu_ctrl_xmc4.c ****  */
  50:../Dave/Generated/CPU_CTRL_XMC4/cpu_ctrl_xmc4.c **** /**************************************************************************************************
  51:../Dave/Generated/CPU_CTRL_XMC4/cpu_ctrl_xmc4.c ****  * HEADER FILES
  52:../Dave/Generated/CPU_CTRL_XMC4/cpu_ctrl_xmc4.c ****  **************************************************************************************************
  53:../Dave/Generated/CPU_CTRL_XMC4/cpu_ctrl_xmc4.c **** #include "cpu_ctrl_xmc4.h"
  54:../Dave/Generated/CPU_CTRL_XMC4/cpu_ctrl_xmc4.c **** /**************************************************************************************************
  55:../Dave/Generated/CPU_CTRL_XMC4/cpu_ctrl_xmc4.c ****  * MACROS
  56:../Dave/Generated/CPU_CTRL_XMC4/cpu_ctrl_xmc4.c ****  **************************************************************************************************
  57:../Dave/Generated/CPU_CTRL_XMC4/cpu_ctrl_xmc4.c **** 
  58:../Dave/Generated/CPU_CTRL_XMC4/cpu_ctrl_xmc4.c **** /**************************************************************************************************
  59:../Dave/Generated/CPU_CTRL_XMC4/cpu_ctrl_xmc4.c ****  * LOCAL DATA
  60:../Dave/Generated/CPU_CTRL_XMC4/cpu_ctrl_xmc4.c ****  **************************************************************************************************
  61:../Dave/Generated/CPU_CTRL_XMC4/cpu_ctrl_xmc4.c **** 
  62:../Dave/Generated/CPU_CTRL_XMC4/cpu_ctrl_xmc4.c **** /**************************************************************************************************
  63:../Dave/Generated/CPU_CTRL_XMC4/cpu_ctrl_xmc4.c ****  * LOCAL ROUTINES
  64:../Dave/Generated/CPU_CTRL_XMC4/cpu_ctrl_xmc4.c ****  **************************************************************************************************
  65:../Dave/Generated/CPU_CTRL_XMC4/cpu_ctrl_xmc4.c **** 
  66:../Dave/Generated/CPU_CTRL_XMC4/cpu_ctrl_xmc4.c **** /**************************************************************************************************
  67:../Dave/Generated/CPU_CTRL_XMC4/cpu_ctrl_xmc4.c **** * API IMPLEMENTATION
  68:../Dave/Generated/CPU_CTRL_XMC4/cpu_ctrl_xmc4.c **** ***************************************************************************************************
  69:../Dave/Generated/CPU_CTRL_XMC4/cpu_ctrl_xmc4.c **** /*
  70:../Dave/Generated/CPU_CTRL_XMC4/cpu_ctrl_xmc4.c ****  * API to retrieve the version of the CPU_CTRL_XMC4 APP
  71:../Dave/Generated/CPU_CTRL_XMC4/cpu_ctrl_xmc4.c ****  */
  72:../Dave/Generated/CPU_CTRL_XMC4/cpu_ctrl_xmc4.c **** DAVE_APP_VERSION_t CPU_CTRL_XMC4_GetAppVersion(void)
  73:../Dave/Generated/CPU_CTRL_XMC4/cpu_ctrl_xmc4.c **** {
  28              	 .loc 1 73 0
  29              	 .cfi_startproc
  30              	 
  31              	 
  32              	 
  33 0000 80B4     	 push {r7}
  34              	.LCFI0:
  35              	 .cfi_def_cfa_offset 4
  36              	 .cfi_offset 7,-4
  37 0002 83B0     	 sub sp,sp,#12
  38              	.LCFI1:
  39              	 .cfi_def_cfa_offset 16
  40 0004 00AF     	 add r7,sp,#0
  41              	.LCFI2:
  42              	 .cfi_def_cfa_register 7
  74:../Dave/Generated/CPU_CTRL_XMC4/cpu_ctrl_xmc4.c ****   DAVE_APP_VERSION_t version;
  75:../Dave/Generated/CPU_CTRL_XMC4/cpu_ctrl_xmc4.c **** 
  76:../Dave/Generated/CPU_CTRL_XMC4/cpu_ctrl_xmc4.c ****   version.major = CPU_CTRL_XMC4_MAJOR_VERSION;
  43              	 .loc 1 76 0
  44 0006 0423     	 movs r3,#4
  45 0008 3B70     	 strb r3,[r7]
  77:../Dave/Generated/CPU_CTRL_XMC4/cpu_ctrl_xmc4.c ****   version.minor = CPU_CTRL_XMC4_MINOR_VERSION;
  46              	 .loc 1 77 0
  47 000a 0023     	 movs r3,#0
  48 000c 7B70     	 strb r3,[r7,#1]
  78:../Dave/Generated/CPU_CTRL_XMC4/cpu_ctrl_xmc4.c ****   version.patch = CPU_CTRL_XMC4_PATCH_VERSION;
  49              	 .loc 1 78 0
  50 000e 0C23     	 movs r3,#12
  51 0010 BB70     	 strb r3,[r7,#2]
  79:../Dave/Generated/CPU_CTRL_XMC4/cpu_ctrl_xmc4.c **** 
  80:../Dave/Generated/CPU_CTRL_XMC4/cpu_ctrl_xmc4.c ****   return (version);
  52              	 .loc 1 80 0
  53 0012 3B1D     	 adds r3,r7,#4
  54 0014 3A46     	 mov r2,r7
  55 0016 1268     	 ldr r2,[r2]
  56 0018 1146     	 mov r1,r2
  57 001a 1980     	 strh r1,[r3]
  58 001c 0233     	 adds r3,r3,#2
  59 001e 120C     	 lsrs r2,r2,#16
  60 0020 1A70     	 strb r2,[r3]
  61 0022 0023     	 movs r3,#0
  62 0024 3A79     	 ldrb r2,[r7,#4]
  63 0026 62F30703 	 bfi r3,r2,#0,#8
  64 002a 7A79     	 ldrb r2,[r7,#5]
  65 002c 62F30F23 	 bfi r3,r2,#8,#8
  66 0030 BA79     	 ldrb r2,[r7,#6]
  67 0032 62F31743 	 bfi r3,r2,#16,#8
  81:../Dave/Generated/CPU_CTRL_XMC4/cpu_ctrl_xmc4.c **** }
  68              	 .loc 1 81 0
  69 0036 1846     	 mov r0,r3
  70 0038 0C37     	 adds r7,r7,#12
  71              	.LCFI3:
  72              	 .cfi_def_cfa_offset 4
  73 003a BD46     	 mov sp,r7
  74              	.LCFI4:
  75              	 .cfi_def_cfa_register 13
  76              	 
  77 003c 5DF8047B 	 ldr r7,[sp],#4
  78              	.LCFI5:
  79              	 .cfi_restore 7
  80              	 .cfi_def_cfa_offset 0
  81 0040 7047     	 bx lr
  82              	 .cfi_endproc
  83              	.LFE128:
  85 0042 00BF     	 .section .text.CPU_CTRL_XMC4_Init,"ax",%progbits
  86              	 .align 2
  87              	 .global CPU_CTRL_XMC4_Init
  88              	 .thumb
  89              	 .thumb_func
  91              	CPU_CTRL_XMC4_Init:
  92              	.LFB129:
  82:../Dave/Generated/CPU_CTRL_XMC4/cpu_ctrl_xmc4.c **** /* Dummy Init API to maintain backward compatibility */
  83:../Dave/Generated/CPU_CTRL_XMC4/cpu_ctrl_xmc4.c **** CPU_CTRL_XMC4_STATUS_t CPU_CTRL_XMC4_Init(CPU_CTRL_XMC4_t *const handler)
  84:../Dave/Generated/CPU_CTRL_XMC4/cpu_ctrl_xmc4.c **** {
  93              	 .loc 1 84 0
  94              	 .cfi_startproc
  95              	 
  96              	 
  97              	 
  98 0000 80B4     	 push {r7}
  99              	.LCFI6:
 100              	 .cfi_def_cfa_offset 4
 101              	 .cfi_offset 7,-4
 102 0002 83B0     	 sub sp,sp,#12
 103              	.LCFI7:
 104              	 .cfi_def_cfa_offset 16
 105 0004 00AF     	 add r7,sp,#0
 106              	.LCFI8:
 107              	 .cfi_def_cfa_register 7
 108 0006 7860     	 str r0,[r7,#4]
  85:../Dave/Generated/CPU_CTRL_XMC4/cpu_ctrl_xmc4.c ****   return CPU_CTRL_XMC4_STATUS_SUCCESS;
 109              	 .loc 1 85 0
 110 0008 0023     	 movs r3,#0
  86:../Dave/Generated/CPU_CTRL_XMC4/cpu_ctrl_xmc4.c **** }
 111              	 .loc 1 86 0
 112 000a 1846     	 mov r0,r3
 113 000c 0C37     	 adds r7,r7,#12
 114              	.LCFI9:
 115              	 .cfi_def_cfa_offset 4
 116 000e BD46     	 mov sp,r7
 117              	.LCFI10:
 118              	 .cfi_def_cfa_register 13
 119              	 
 120 0010 5DF8047B 	 ldr r7,[sp],#4
 121              	.LCFI11:
 122              	 .cfi_restore 7
 123              	 .cfi_def_cfa_offset 0
 124 0014 7047     	 bx lr
 125              	 .cfi_endproc
 126              	.LFE129:
 128 0016 00BF     	 .section .text.CPU_CTRL_XMC4_MPU_Enable,"ax",%progbits
 129              	 .align 2
 130              	 .global CPU_CTRL_XMC4_MPU_Enable
 131              	 .thumb
 132              	 .thumb_func
 134              	CPU_CTRL_XMC4_MPU_Enable:
 135              	.LFB130:
  87:../Dave/Generated/CPU_CTRL_XMC4/cpu_ctrl_xmc4.c **** 
  88:../Dave/Generated/CPU_CTRL_XMC4/cpu_ctrl_xmc4.c **** /*
  89:../Dave/Generated/CPU_CTRL_XMC4/cpu_ctrl_xmc4.c ****  * API to enable the MPU
  90:../Dave/Generated/CPU_CTRL_XMC4/cpu_ctrl_xmc4.c ****  */
  91:../Dave/Generated/CPU_CTRL_XMC4/cpu_ctrl_xmc4.c **** void CPU_CTRL_XMC4_MPU_Enable(uint32_t options)
  92:../Dave/Generated/CPU_CTRL_XMC4/cpu_ctrl_xmc4.c **** {
 136              	 .loc 1 92 0
 137              	 .cfi_startproc
 138              	 
 139              	 
 140              	 
 141 0000 80B4     	 push {r7}
 142              	.LCFI12:
 143              	 .cfi_def_cfa_offset 4
 144              	 .cfi_offset 7,-4
 145 0002 83B0     	 sub sp,sp,#12
 146              	.LCFI13:
 147              	 .cfi_def_cfa_offset 16
 148 0004 00AF     	 add r7,sp,#0
 149              	.LCFI14:
 150              	 .cfi_def_cfa_register 7
 151 0006 7860     	 str r0,[r7,#4]
  93:../Dave/Generated/CPU_CTRL_XMC4/cpu_ctrl_xmc4.c ****   MPU->CTRL = MPU_CTRL_ENABLE_Msk | options;
 152              	 .loc 1 93 0
 153 0008 064A     	 ldr r2,.L6
 154 000a 7B68     	 ldr r3,[r7,#4]
 155 000c 43F00103 	 orr r3,r3,#1
 156 0010 5360     	 str r3,[r2,#4]
 157              	.LBB8:
 158              	.LBB9:
 159              	 .file 2 "D:\\dholler\\Dokumente\\uni\\bus\\xmc\\usbCanNode/Libraries/CMSIS/Include/cmsis_gcc.h"
   1:D:\dholler\Dokumente\uni\bus\xmc\usbCanNode/Libraries/CMSIS/Include\cmsis_gcc.h **** /**************************************************************************//**
   2:D:\dholler\Dokumente\uni\bus\xmc\usbCanNode/Libraries/CMSIS/Include\cmsis_gcc.h ****  * @file     cmsis_gcc.h
   3:D:\dholler\Dokumente\uni\bus\xmc\usbCanNode/Libraries/CMSIS/Include\cmsis_gcc.h ****  * @brief    CMSIS Cortex-M Core Function/Instruction Header File
   4:D:\dholler\Dokumente\uni\bus\xmc\usbCanNode/Libraries/CMSIS/Include\cmsis_gcc.h ****  * @version  V4.30
   5:D:\dholler\Dokumente\uni\bus\xmc\usbCanNode/Libraries/CMSIS/Include\cmsis_gcc.h ****  * @date     20. October 2015
   6:D:\dholler\Dokumente\uni\bus\xmc\usbCanNode/Libraries/CMSIS/Include\cmsis_gcc.h ****  ******************************************************************************/
   7:D:\dholler\Dokumente\uni\bus\xmc\usbCanNode/Libraries/CMSIS/Include\cmsis_gcc.h **** /* Copyright (c) 2009 - 2015 ARM LIMITED
   8:D:\dholler\Dokumente\uni\bus\xmc\usbCanNode/Libraries/CMSIS/Include\cmsis_gcc.h **** 
   9:D:\dholler\Dokumente\uni\bus\xmc\usbCanNode/Libraries/CMSIS/Include\cmsis_gcc.h ****    All rights reserved.
  10:D:\dholler\Dokumente\uni\bus\xmc\usbCanNode/Libraries/CMSIS/Include\cmsis_gcc.h ****    Redistribution and use in source and binary forms, with or without
  11:D:\dholler\Dokumente\uni\bus\xmc\usbCanNode/Libraries/CMSIS/Include\cmsis_gcc.h ****    modification, are permitted provided that the following conditions are met:
  12:D:\dholler\Dokumente\uni\bus\xmc\usbCanNode/Libraries/CMSIS/Include\cmsis_gcc.h ****    - Redistributions of source code must retain the above copyright
  13:D:\dholler\Dokumente\uni\bus\xmc\usbCanNode/Libraries/CMSIS/Include\cmsis_gcc.h ****      notice, this list of conditions and the following disclaimer.
  14:D:\dholler\Dokumente\uni\bus\xmc\usbCanNode/Libraries/CMSIS/Include\cmsis_gcc.h ****    - Redistributions in binary form must reproduce the above copyright
  15:D:\dholler\Dokumente\uni\bus\xmc\usbCanNode/Libraries/CMSIS/Include\cmsis_gcc.h ****      notice, this list of conditions and the following disclaimer in the
  16:D:\dholler\Dokumente\uni\bus\xmc\usbCanNode/Libraries/CMSIS/Include\cmsis_gcc.h ****      documentation and/or other materials provided with the distribution.
  17:D:\dholler\Dokumente\uni\bus\xmc\usbCanNode/Libraries/CMSIS/Include\cmsis_gcc.h ****    - Neither the name of ARM nor the names of its contributors may be used
  18:D:\dholler\Dokumente\uni\bus\xmc\usbCanNode/Libraries/CMSIS/Include\cmsis_gcc.h ****      to endorse or promote products derived from this software without
  19:D:\dholler\Dokumente\uni\bus\xmc\usbCanNode/Libraries/CMSIS/Include\cmsis_gcc.h ****      specific prior written permission.
  20:D:\dholler\Dokumente\uni\bus\xmc\usbCanNode/Libraries/CMSIS/Include\cmsis_gcc.h ****    *
  21:D:\dholler\Dokumente\uni\bus\xmc\usbCanNode/Libraries/CMSIS/Include\cmsis_gcc.h ****    THIS SOFTWARE IS PROVIDED BY THE COPYRIGHT HOLDERS AND CONTRIBUTORS "AS IS"
  22:D:\dholler\Dokumente\uni\bus\xmc\usbCanNode/Libraries/CMSIS/Include\cmsis_gcc.h ****    AND ANY EXPRESS OR IMPLIED WARRANTIES, INCLUDING, BUT NOT LIMITED TO, THE
  23:D:\dholler\Dokumente\uni\bus\xmc\usbCanNode/Libraries/CMSIS/Include\cmsis_gcc.h ****    IMPLIED WARRANTIES OF MERCHANTABILITY AND FITNESS FOR A PARTICULAR PURPOSE
  24:D:\dholler\Dokumente\uni\bus\xmc\usbCanNode/Libraries/CMSIS/Include\cmsis_gcc.h ****    ARE DISCLAIMED. IN NO EVENT SHALL COPYRIGHT HOLDERS AND CONTRIBUTORS BE
  25:D:\dholler\Dokumente\uni\bus\xmc\usbCanNode/Libraries/CMSIS/Include\cmsis_gcc.h ****    LIABLE FOR ANY DIRECT, INDIRECT, INCIDENTAL, SPECIAL, EXEMPLARY, OR
  26:D:\dholler\Dokumente\uni\bus\xmc\usbCanNode/Libraries/CMSIS/Include\cmsis_gcc.h ****    CONSEQUENTIAL DAMAGES (INCLUDING, BUT NOT LIMITED TO, PROCUREMENT OF
  27:D:\dholler\Dokumente\uni\bus\xmc\usbCanNode/Libraries/CMSIS/Include\cmsis_gcc.h ****    SUBSTITUTE GOODS OR SERVICES; LOSS OF USE, DATA, OR PROFITS; OR BUSINESS
  28:D:\dholler\Dokumente\uni\bus\xmc\usbCanNode/Libraries/CMSIS/Include\cmsis_gcc.h ****    INTERRUPTION) HOWEVER CAUSED AND ON ANY THEORY OF LIABILITY, WHETHER IN
  29:D:\dholler\Dokumente\uni\bus\xmc\usbCanNode/Libraries/CMSIS/Include\cmsis_gcc.h ****    CONTRACT, STRICT LIABILITY, OR TORT (INCLUDING NEGLIGENCE OR OTHERWISE)
  30:D:\dholler\Dokumente\uni\bus\xmc\usbCanNode/Libraries/CMSIS/Include\cmsis_gcc.h ****    ARISING IN ANY WAY OUT OF THE USE OF THIS SOFTWARE, EVEN IF ADVISED OF THE
  31:D:\dholler\Dokumente\uni\bus\xmc\usbCanNode/Libraries/CMSIS/Include\cmsis_gcc.h ****    POSSIBILITY OF SUCH DAMAGE.
  32:D:\dholler\Dokumente\uni\bus\xmc\usbCanNode/Libraries/CMSIS/Include\cmsis_gcc.h ****    ---------------------------------------------------------------------------*/
  33:D:\dholler\Dokumente\uni\bus\xmc\usbCanNode/Libraries/CMSIS/Include\cmsis_gcc.h **** 
  34:D:\dholler\Dokumente\uni\bus\xmc\usbCanNode/Libraries/CMSIS/Include\cmsis_gcc.h **** 
  35:D:\dholler\Dokumente\uni\bus\xmc\usbCanNode/Libraries/CMSIS/Include\cmsis_gcc.h **** #ifndef __CMSIS_GCC_H
  36:D:\dholler\Dokumente\uni\bus\xmc\usbCanNode/Libraries/CMSIS/Include\cmsis_gcc.h **** #define __CMSIS_GCC_H
  37:D:\dholler\Dokumente\uni\bus\xmc\usbCanNode/Libraries/CMSIS/Include\cmsis_gcc.h **** 
  38:D:\dholler\Dokumente\uni\bus\xmc\usbCanNode/Libraries/CMSIS/Include\cmsis_gcc.h **** /* ignore some GCC warnings */
  39:D:\dholler\Dokumente\uni\bus\xmc\usbCanNode/Libraries/CMSIS/Include\cmsis_gcc.h **** #if defined ( __GNUC__ )
  40:D:\dholler\Dokumente\uni\bus\xmc\usbCanNode/Libraries/CMSIS/Include\cmsis_gcc.h **** #pragma GCC diagnostic push
  41:D:\dholler\Dokumente\uni\bus\xmc\usbCanNode/Libraries/CMSIS/Include\cmsis_gcc.h **** #pragma GCC diagnostic ignored "-Wsign-conversion"
  42:D:\dholler\Dokumente\uni\bus\xmc\usbCanNode/Libraries/CMSIS/Include\cmsis_gcc.h **** #pragma GCC diagnostic ignored "-Wconversion"
  43:D:\dholler\Dokumente\uni\bus\xmc\usbCanNode/Libraries/CMSIS/Include\cmsis_gcc.h **** #pragma GCC diagnostic ignored "-Wunused-parameter"
  44:D:\dholler\Dokumente\uni\bus\xmc\usbCanNode/Libraries/CMSIS/Include\cmsis_gcc.h **** #endif
  45:D:\dholler\Dokumente\uni\bus\xmc\usbCanNode/Libraries/CMSIS/Include\cmsis_gcc.h **** 
  46:D:\dholler\Dokumente\uni\bus\xmc\usbCanNode/Libraries/CMSIS/Include\cmsis_gcc.h **** 
  47:D:\dholler\Dokumente\uni\bus\xmc\usbCanNode/Libraries/CMSIS/Include\cmsis_gcc.h **** /* ###########################  Core Function Access  ########################### */
  48:D:\dholler\Dokumente\uni\bus\xmc\usbCanNode/Libraries/CMSIS/Include\cmsis_gcc.h **** /** \ingroup  CMSIS_Core_FunctionInterface
  49:D:\dholler\Dokumente\uni\bus\xmc\usbCanNode/Libraries/CMSIS/Include\cmsis_gcc.h ****     \defgroup CMSIS_Core_RegAccFunctions CMSIS Core Register Access Functions
  50:D:\dholler\Dokumente\uni\bus\xmc\usbCanNode/Libraries/CMSIS/Include\cmsis_gcc.h ****   @{
  51:D:\dholler\Dokumente\uni\bus\xmc\usbCanNode/Libraries/CMSIS/Include\cmsis_gcc.h ****  */
  52:D:\dholler\Dokumente\uni\bus\xmc\usbCanNode/Libraries/CMSIS/Include\cmsis_gcc.h **** 
  53:D:\dholler\Dokumente\uni\bus\xmc\usbCanNode/Libraries/CMSIS/Include\cmsis_gcc.h **** /**
  54:D:\dholler\Dokumente\uni\bus\xmc\usbCanNode/Libraries/CMSIS/Include\cmsis_gcc.h ****   \brief   Enable IRQ Interrupts
  55:D:\dholler\Dokumente\uni\bus\xmc\usbCanNode/Libraries/CMSIS/Include\cmsis_gcc.h ****   \details Enables IRQ interrupts by clearing the I-bit in the CPSR.
  56:D:\dholler\Dokumente\uni\bus\xmc\usbCanNode/Libraries/CMSIS/Include\cmsis_gcc.h ****            Can only be executed in Privileged modes.
  57:D:\dholler\Dokumente\uni\bus\xmc\usbCanNode/Libraries/CMSIS/Include\cmsis_gcc.h ****  */
  58:D:\dholler\Dokumente\uni\bus\xmc\usbCanNode/Libraries/CMSIS/Include\cmsis_gcc.h **** __attribute__( ( always_inline ) ) __STATIC_INLINE void __enable_irq(void)
  59:D:\dholler\Dokumente\uni\bus\xmc\usbCanNode/Libraries/CMSIS/Include\cmsis_gcc.h **** {
  60:D:\dholler\Dokumente\uni\bus\xmc\usbCanNode/Libraries/CMSIS/Include\cmsis_gcc.h ****   __ASM volatile ("cpsie i" : : : "memory");
  61:D:\dholler\Dokumente\uni\bus\xmc\usbCanNode/Libraries/CMSIS/Include\cmsis_gcc.h **** }
  62:D:\dholler\Dokumente\uni\bus\xmc\usbCanNode/Libraries/CMSIS/Include\cmsis_gcc.h **** 
  63:D:\dholler\Dokumente\uni\bus\xmc\usbCanNode/Libraries/CMSIS/Include\cmsis_gcc.h **** 
  64:D:\dholler\Dokumente\uni\bus\xmc\usbCanNode/Libraries/CMSIS/Include\cmsis_gcc.h **** /**
  65:D:\dholler\Dokumente\uni\bus\xmc\usbCanNode/Libraries/CMSIS/Include\cmsis_gcc.h ****   \brief   Disable IRQ Interrupts
  66:D:\dholler\Dokumente\uni\bus\xmc\usbCanNode/Libraries/CMSIS/Include\cmsis_gcc.h ****   \details Disables IRQ interrupts by setting the I-bit in the CPSR.
  67:D:\dholler\Dokumente\uni\bus\xmc\usbCanNode/Libraries/CMSIS/Include\cmsis_gcc.h ****   Can only be executed in Privileged modes.
  68:D:\dholler\Dokumente\uni\bus\xmc\usbCanNode/Libraries/CMSIS/Include\cmsis_gcc.h ****  */
  69:D:\dholler\Dokumente\uni\bus\xmc\usbCanNode/Libraries/CMSIS/Include\cmsis_gcc.h **** __attribute__( ( always_inline ) ) __STATIC_INLINE void __disable_irq(void)
  70:D:\dholler\Dokumente\uni\bus\xmc\usbCanNode/Libraries/CMSIS/Include\cmsis_gcc.h **** {
  71:D:\dholler\Dokumente\uni\bus\xmc\usbCanNode/Libraries/CMSIS/Include\cmsis_gcc.h ****   __ASM volatile ("cpsid i" : : : "memory");
  72:D:\dholler\Dokumente\uni\bus\xmc\usbCanNode/Libraries/CMSIS/Include\cmsis_gcc.h **** }
  73:D:\dholler\Dokumente\uni\bus\xmc\usbCanNode/Libraries/CMSIS/Include\cmsis_gcc.h **** 
  74:D:\dholler\Dokumente\uni\bus\xmc\usbCanNode/Libraries/CMSIS/Include\cmsis_gcc.h **** 
  75:D:\dholler\Dokumente\uni\bus\xmc\usbCanNode/Libraries/CMSIS/Include\cmsis_gcc.h **** /**
  76:D:\dholler\Dokumente\uni\bus\xmc\usbCanNode/Libraries/CMSIS/Include\cmsis_gcc.h ****   \brief   Get Control Register
  77:D:\dholler\Dokumente\uni\bus\xmc\usbCanNode/Libraries/CMSIS/Include\cmsis_gcc.h ****   \details Returns the content of the Control Register.
  78:D:\dholler\Dokumente\uni\bus\xmc\usbCanNode/Libraries/CMSIS/Include\cmsis_gcc.h ****   \return               Control Register value
  79:D:\dholler\Dokumente\uni\bus\xmc\usbCanNode/Libraries/CMSIS/Include\cmsis_gcc.h ****  */
  80:D:\dholler\Dokumente\uni\bus\xmc\usbCanNode/Libraries/CMSIS/Include\cmsis_gcc.h **** __attribute__( ( always_inline ) ) __STATIC_INLINE uint32_t __get_CONTROL(void)
  81:D:\dholler\Dokumente\uni\bus\xmc\usbCanNode/Libraries/CMSIS/Include\cmsis_gcc.h **** {
  82:D:\dholler\Dokumente\uni\bus\xmc\usbCanNode/Libraries/CMSIS/Include\cmsis_gcc.h ****   uint32_t result;
  83:D:\dholler\Dokumente\uni\bus\xmc\usbCanNode/Libraries/CMSIS/Include\cmsis_gcc.h **** 
  84:D:\dholler\Dokumente\uni\bus\xmc\usbCanNode/Libraries/CMSIS/Include\cmsis_gcc.h ****   __ASM volatile ("MRS %0, control" : "=r" (result) );
  85:D:\dholler\Dokumente\uni\bus\xmc\usbCanNode/Libraries/CMSIS/Include\cmsis_gcc.h ****   return(result);
  86:D:\dholler\Dokumente\uni\bus\xmc\usbCanNode/Libraries/CMSIS/Include\cmsis_gcc.h **** }
  87:D:\dholler\Dokumente\uni\bus\xmc\usbCanNode/Libraries/CMSIS/Include\cmsis_gcc.h **** 
  88:D:\dholler\Dokumente\uni\bus\xmc\usbCanNode/Libraries/CMSIS/Include\cmsis_gcc.h **** 
  89:D:\dholler\Dokumente\uni\bus\xmc\usbCanNode/Libraries/CMSIS/Include\cmsis_gcc.h **** /**
  90:D:\dholler\Dokumente\uni\bus\xmc\usbCanNode/Libraries/CMSIS/Include\cmsis_gcc.h ****   \brief   Set Control Register
  91:D:\dholler\Dokumente\uni\bus\xmc\usbCanNode/Libraries/CMSIS/Include\cmsis_gcc.h ****   \details Writes the given value to the Control Register.
  92:D:\dholler\Dokumente\uni\bus\xmc\usbCanNode/Libraries/CMSIS/Include\cmsis_gcc.h ****   \param [in]    control  Control Register value to set
  93:D:\dholler\Dokumente\uni\bus\xmc\usbCanNode/Libraries/CMSIS/Include\cmsis_gcc.h ****  */
  94:D:\dholler\Dokumente\uni\bus\xmc\usbCanNode/Libraries/CMSIS/Include\cmsis_gcc.h **** __attribute__( ( always_inline ) ) __STATIC_INLINE void __set_CONTROL(uint32_t control)
  95:D:\dholler\Dokumente\uni\bus\xmc\usbCanNode/Libraries/CMSIS/Include\cmsis_gcc.h **** {
  96:D:\dholler\Dokumente\uni\bus\xmc\usbCanNode/Libraries/CMSIS/Include\cmsis_gcc.h ****   __ASM volatile ("MSR control, %0" : : "r" (control) : "memory");
  97:D:\dholler\Dokumente\uni\bus\xmc\usbCanNode/Libraries/CMSIS/Include\cmsis_gcc.h **** }
  98:D:\dholler\Dokumente\uni\bus\xmc\usbCanNode/Libraries/CMSIS/Include\cmsis_gcc.h **** 
  99:D:\dholler\Dokumente\uni\bus\xmc\usbCanNode/Libraries/CMSIS/Include\cmsis_gcc.h **** 
 100:D:\dholler\Dokumente\uni\bus\xmc\usbCanNode/Libraries/CMSIS/Include\cmsis_gcc.h **** /**
 101:D:\dholler\Dokumente\uni\bus\xmc\usbCanNode/Libraries/CMSIS/Include\cmsis_gcc.h ****   \brief   Get IPSR Register
 102:D:\dholler\Dokumente\uni\bus\xmc\usbCanNode/Libraries/CMSIS/Include\cmsis_gcc.h ****   \details Returns the content of the IPSR Register.
 103:D:\dholler\Dokumente\uni\bus\xmc\usbCanNode/Libraries/CMSIS/Include\cmsis_gcc.h ****   \return               IPSR Register value
 104:D:\dholler\Dokumente\uni\bus\xmc\usbCanNode/Libraries/CMSIS/Include\cmsis_gcc.h ****  */
 105:D:\dholler\Dokumente\uni\bus\xmc\usbCanNode/Libraries/CMSIS/Include\cmsis_gcc.h **** __attribute__( ( always_inline ) ) __STATIC_INLINE uint32_t __get_IPSR(void)
 106:D:\dholler\Dokumente\uni\bus\xmc\usbCanNode/Libraries/CMSIS/Include\cmsis_gcc.h **** {
 107:D:\dholler\Dokumente\uni\bus\xmc\usbCanNode/Libraries/CMSIS/Include\cmsis_gcc.h ****   uint32_t result;
 108:D:\dholler\Dokumente\uni\bus\xmc\usbCanNode/Libraries/CMSIS/Include\cmsis_gcc.h **** 
 109:D:\dholler\Dokumente\uni\bus\xmc\usbCanNode/Libraries/CMSIS/Include\cmsis_gcc.h ****   __ASM volatile ("MRS %0, ipsr" : "=r" (result) );
 110:D:\dholler\Dokumente\uni\bus\xmc\usbCanNode/Libraries/CMSIS/Include\cmsis_gcc.h ****   return(result);
 111:D:\dholler\Dokumente\uni\bus\xmc\usbCanNode/Libraries/CMSIS/Include\cmsis_gcc.h **** }
 112:D:\dholler\Dokumente\uni\bus\xmc\usbCanNode/Libraries/CMSIS/Include\cmsis_gcc.h **** 
 113:D:\dholler\Dokumente\uni\bus\xmc\usbCanNode/Libraries/CMSIS/Include\cmsis_gcc.h **** 
 114:D:\dholler\Dokumente\uni\bus\xmc\usbCanNode/Libraries/CMSIS/Include\cmsis_gcc.h **** /**
 115:D:\dholler\Dokumente\uni\bus\xmc\usbCanNode/Libraries/CMSIS/Include\cmsis_gcc.h ****   \brief   Get APSR Register
 116:D:\dholler\Dokumente\uni\bus\xmc\usbCanNode/Libraries/CMSIS/Include\cmsis_gcc.h ****   \details Returns the content of the APSR Register.
 117:D:\dholler\Dokumente\uni\bus\xmc\usbCanNode/Libraries/CMSIS/Include\cmsis_gcc.h ****   \return               APSR Register value
 118:D:\dholler\Dokumente\uni\bus\xmc\usbCanNode/Libraries/CMSIS/Include\cmsis_gcc.h ****  */
 119:D:\dholler\Dokumente\uni\bus\xmc\usbCanNode/Libraries/CMSIS/Include\cmsis_gcc.h **** __attribute__( ( always_inline ) ) __STATIC_INLINE uint32_t __get_APSR(void)
 120:D:\dholler\Dokumente\uni\bus\xmc\usbCanNode/Libraries/CMSIS/Include\cmsis_gcc.h **** {
 121:D:\dholler\Dokumente\uni\bus\xmc\usbCanNode/Libraries/CMSIS/Include\cmsis_gcc.h ****   uint32_t result;
 122:D:\dholler\Dokumente\uni\bus\xmc\usbCanNode/Libraries/CMSIS/Include\cmsis_gcc.h **** 
 123:D:\dholler\Dokumente\uni\bus\xmc\usbCanNode/Libraries/CMSIS/Include\cmsis_gcc.h ****   __ASM volatile ("MRS %0, apsr" : "=r" (result) );
 124:D:\dholler\Dokumente\uni\bus\xmc\usbCanNode/Libraries/CMSIS/Include\cmsis_gcc.h ****   return(result);
 125:D:\dholler\Dokumente\uni\bus\xmc\usbCanNode/Libraries/CMSIS/Include\cmsis_gcc.h **** }
 126:D:\dholler\Dokumente\uni\bus\xmc\usbCanNode/Libraries/CMSIS/Include\cmsis_gcc.h **** 
 127:D:\dholler\Dokumente\uni\bus\xmc\usbCanNode/Libraries/CMSIS/Include\cmsis_gcc.h **** 
 128:D:\dholler\Dokumente\uni\bus\xmc\usbCanNode/Libraries/CMSIS/Include\cmsis_gcc.h **** /**
 129:D:\dholler\Dokumente\uni\bus\xmc\usbCanNode/Libraries/CMSIS/Include\cmsis_gcc.h ****   \brief   Get xPSR Register
 130:D:\dholler\Dokumente\uni\bus\xmc\usbCanNode/Libraries/CMSIS/Include\cmsis_gcc.h ****   \details Returns the content of the xPSR Register.
 131:D:\dholler\Dokumente\uni\bus\xmc\usbCanNode/Libraries/CMSIS/Include\cmsis_gcc.h **** 
 132:D:\dholler\Dokumente\uni\bus\xmc\usbCanNode/Libraries/CMSIS/Include\cmsis_gcc.h ****     \return               xPSR Register value
 133:D:\dholler\Dokumente\uni\bus\xmc\usbCanNode/Libraries/CMSIS/Include\cmsis_gcc.h ****  */
 134:D:\dholler\Dokumente\uni\bus\xmc\usbCanNode/Libraries/CMSIS/Include\cmsis_gcc.h **** __attribute__( ( always_inline ) ) __STATIC_INLINE uint32_t __get_xPSR(void)
 135:D:\dholler\Dokumente\uni\bus\xmc\usbCanNode/Libraries/CMSIS/Include\cmsis_gcc.h **** {
 136:D:\dholler\Dokumente\uni\bus\xmc\usbCanNode/Libraries/CMSIS/Include\cmsis_gcc.h ****   uint32_t result;
 137:D:\dholler\Dokumente\uni\bus\xmc\usbCanNode/Libraries/CMSIS/Include\cmsis_gcc.h **** 
 138:D:\dholler\Dokumente\uni\bus\xmc\usbCanNode/Libraries/CMSIS/Include\cmsis_gcc.h ****   __ASM volatile ("MRS %0, xpsr" : "=r" (result) );
 139:D:\dholler\Dokumente\uni\bus\xmc\usbCanNode/Libraries/CMSIS/Include\cmsis_gcc.h ****   return(result);
 140:D:\dholler\Dokumente\uni\bus\xmc\usbCanNode/Libraries/CMSIS/Include\cmsis_gcc.h **** }
 141:D:\dholler\Dokumente\uni\bus\xmc\usbCanNode/Libraries/CMSIS/Include\cmsis_gcc.h **** 
 142:D:\dholler\Dokumente\uni\bus\xmc\usbCanNode/Libraries/CMSIS/Include\cmsis_gcc.h **** 
 143:D:\dholler\Dokumente\uni\bus\xmc\usbCanNode/Libraries/CMSIS/Include\cmsis_gcc.h **** /**
 144:D:\dholler\Dokumente\uni\bus\xmc\usbCanNode/Libraries/CMSIS/Include\cmsis_gcc.h ****   \brief   Get Process Stack Pointer
 145:D:\dholler\Dokumente\uni\bus\xmc\usbCanNode/Libraries/CMSIS/Include\cmsis_gcc.h ****   \details Returns the current value of the Process Stack Pointer (PSP).
 146:D:\dholler\Dokumente\uni\bus\xmc\usbCanNode/Libraries/CMSIS/Include\cmsis_gcc.h ****   \return               PSP Register value
 147:D:\dholler\Dokumente\uni\bus\xmc\usbCanNode/Libraries/CMSIS/Include\cmsis_gcc.h ****  */
 148:D:\dholler\Dokumente\uni\bus\xmc\usbCanNode/Libraries/CMSIS/Include\cmsis_gcc.h **** __attribute__( ( always_inline ) ) __STATIC_INLINE uint32_t __get_PSP(void)
 149:D:\dholler\Dokumente\uni\bus\xmc\usbCanNode/Libraries/CMSIS/Include\cmsis_gcc.h **** {
 150:D:\dholler\Dokumente\uni\bus\xmc\usbCanNode/Libraries/CMSIS/Include\cmsis_gcc.h ****   register uint32_t result;
 151:D:\dholler\Dokumente\uni\bus\xmc\usbCanNode/Libraries/CMSIS/Include\cmsis_gcc.h **** 
 152:D:\dholler\Dokumente\uni\bus\xmc\usbCanNode/Libraries/CMSIS/Include\cmsis_gcc.h ****   __ASM volatile ("MRS %0, psp\n"  : "=r" (result) );
 153:D:\dholler\Dokumente\uni\bus\xmc\usbCanNode/Libraries/CMSIS/Include\cmsis_gcc.h ****   return(result);
 154:D:\dholler\Dokumente\uni\bus\xmc\usbCanNode/Libraries/CMSIS/Include\cmsis_gcc.h **** }
 155:D:\dholler\Dokumente\uni\bus\xmc\usbCanNode/Libraries/CMSIS/Include\cmsis_gcc.h **** 
 156:D:\dholler\Dokumente\uni\bus\xmc\usbCanNode/Libraries/CMSIS/Include\cmsis_gcc.h **** 
 157:D:\dholler\Dokumente\uni\bus\xmc\usbCanNode/Libraries/CMSIS/Include\cmsis_gcc.h **** /**
 158:D:\dholler\Dokumente\uni\bus\xmc\usbCanNode/Libraries/CMSIS/Include\cmsis_gcc.h ****   \brief   Set Process Stack Pointer
 159:D:\dholler\Dokumente\uni\bus\xmc\usbCanNode/Libraries/CMSIS/Include\cmsis_gcc.h ****   \details Assigns the given value to the Process Stack Pointer (PSP).
 160:D:\dholler\Dokumente\uni\bus\xmc\usbCanNode/Libraries/CMSIS/Include\cmsis_gcc.h ****   \param [in]    topOfProcStack  Process Stack Pointer value to set
 161:D:\dholler\Dokumente\uni\bus\xmc\usbCanNode/Libraries/CMSIS/Include\cmsis_gcc.h ****  */
 162:D:\dholler\Dokumente\uni\bus\xmc\usbCanNode/Libraries/CMSIS/Include\cmsis_gcc.h **** __attribute__( ( always_inline ) ) __STATIC_INLINE void __set_PSP(uint32_t topOfProcStack)
 163:D:\dholler\Dokumente\uni\bus\xmc\usbCanNode/Libraries/CMSIS/Include\cmsis_gcc.h **** {
 164:D:\dholler\Dokumente\uni\bus\xmc\usbCanNode/Libraries/CMSIS/Include\cmsis_gcc.h ****   __ASM volatile ("MSR psp, %0\n" : : "r" (topOfProcStack) : "sp");
 165:D:\dholler\Dokumente\uni\bus\xmc\usbCanNode/Libraries/CMSIS/Include\cmsis_gcc.h **** }
 166:D:\dholler\Dokumente\uni\bus\xmc\usbCanNode/Libraries/CMSIS/Include\cmsis_gcc.h **** 
 167:D:\dholler\Dokumente\uni\bus\xmc\usbCanNode/Libraries/CMSIS/Include\cmsis_gcc.h **** 
 168:D:\dholler\Dokumente\uni\bus\xmc\usbCanNode/Libraries/CMSIS/Include\cmsis_gcc.h **** /**
 169:D:\dholler\Dokumente\uni\bus\xmc\usbCanNode/Libraries/CMSIS/Include\cmsis_gcc.h ****   \brief   Get Main Stack Pointer
 170:D:\dholler\Dokumente\uni\bus\xmc\usbCanNode/Libraries/CMSIS/Include\cmsis_gcc.h ****   \details Returns the current value of the Main Stack Pointer (MSP).
 171:D:\dholler\Dokumente\uni\bus\xmc\usbCanNode/Libraries/CMSIS/Include\cmsis_gcc.h ****   \return               MSP Register value
 172:D:\dholler\Dokumente\uni\bus\xmc\usbCanNode/Libraries/CMSIS/Include\cmsis_gcc.h ****  */
 173:D:\dholler\Dokumente\uni\bus\xmc\usbCanNode/Libraries/CMSIS/Include\cmsis_gcc.h **** __attribute__( ( always_inline ) ) __STATIC_INLINE uint32_t __get_MSP(void)
 174:D:\dholler\Dokumente\uni\bus\xmc\usbCanNode/Libraries/CMSIS/Include\cmsis_gcc.h **** {
 175:D:\dholler\Dokumente\uni\bus\xmc\usbCanNode/Libraries/CMSIS/Include\cmsis_gcc.h ****   register uint32_t result;
 176:D:\dholler\Dokumente\uni\bus\xmc\usbCanNode/Libraries/CMSIS/Include\cmsis_gcc.h **** 
 177:D:\dholler\Dokumente\uni\bus\xmc\usbCanNode/Libraries/CMSIS/Include\cmsis_gcc.h ****   __ASM volatile ("MRS %0, msp\n" : "=r" (result) );
 178:D:\dholler\Dokumente\uni\bus\xmc\usbCanNode/Libraries/CMSIS/Include\cmsis_gcc.h ****   return(result);
 179:D:\dholler\Dokumente\uni\bus\xmc\usbCanNode/Libraries/CMSIS/Include\cmsis_gcc.h **** }
 180:D:\dholler\Dokumente\uni\bus\xmc\usbCanNode/Libraries/CMSIS/Include\cmsis_gcc.h **** 
 181:D:\dholler\Dokumente\uni\bus\xmc\usbCanNode/Libraries/CMSIS/Include\cmsis_gcc.h **** 
 182:D:\dholler\Dokumente\uni\bus\xmc\usbCanNode/Libraries/CMSIS/Include\cmsis_gcc.h **** /**
 183:D:\dholler\Dokumente\uni\bus\xmc\usbCanNode/Libraries/CMSIS/Include\cmsis_gcc.h ****   \brief   Set Main Stack Pointer
 184:D:\dholler\Dokumente\uni\bus\xmc\usbCanNode/Libraries/CMSIS/Include\cmsis_gcc.h ****   \details Assigns the given value to the Main Stack Pointer (MSP).
 185:D:\dholler\Dokumente\uni\bus\xmc\usbCanNode/Libraries/CMSIS/Include\cmsis_gcc.h **** 
 186:D:\dholler\Dokumente\uni\bus\xmc\usbCanNode/Libraries/CMSIS/Include\cmsis_gcc.h ****     \param [in]    topOfMainStack  Main Stack Pointer value to set
 187:D:\dholler\Dokumente\uni\bus\xmc\usbCanNode/Libraries/CMSIS/Include\cmsis_gcc.h ****  */
 188:D:\dholler\Dokumente\uni\bus\xmc\usbCanNode/Libraries/CMSIS/Include\cmsis_gcc.h **** __attribute__( ( always_inline ) ) __STATIC_INLINE void __set_MSP(uint32_t topOfMainStack)
 189:D:\dholler\Dokumente\uni\bus\xmc\usbCanNode/Libraries/CMSIS/Include\cmsis_gcc.h **** {
 190:D:\dholler\Dokumente\uni\bus\xmc\usbCanNode/Libraries/CMSIS/Include\cmsis_gcc.h ****   __ASM volatile ("MSR msp, %0\n" : : "r" (topOfMainStack) : "sp");
 191:D:\dholler\Dokumente\uni\bus\xmc\usbCanNode/Libraries/CMSIS/Include\cmsis_gcc.h **** }
 192:D:\dholler\Dokumente\uni\bus\xmc\usbCanNode/Libraries/CMSIS/Include\cmsis_gcc.h **** 
 193:D:\dholler\Dokumente\uni\bus\xmc\usbCanNode/Libraries/CMSIS/Include\cmsis_gcc.h **** 
 194:D:\dholler\Dokumente\uni\bus\xmc\usbCanNode/Libraries/CMSIS/Include\cmsis_gcc.h **** /**
 195:D:\dholler\Dokumente\uni\bus\xmc\usbCanNode/Libraries/CMSIS/Include\cmsis_gcc.h ****   \brief   Get Priority Mask
 196:D:\dholler\Dokumente\uni\bus\xmc\usbCanNode/Libraries/CMSIS/Include\cmsis_gcc.h ****   \details Returns the current state of the priority mask bit from the Priority Mask Register.
 197:D:\dholler\Dokumente\uni\bus\xmc\usbCanNode/Libraries/CMSIS/Include\cmsis_gcc.h ****   \return               Priority Mask value
 198:D:\dholler\Dokumente\uni\bus\xmc\usbCanNode/Libraries/CMSIS/Include\cmsis_gcc.h ****  */
 199:D:\dholler\Dokumente\uni\bus\xmc\usbCanNode/Libraries/CMSIS/Include\cmsis_gcc.h **** __attribute__( ( always_inline ) ) __STATIC_INLINE uint32_t __get_PRIMASK(void)
 200:D:\dholler\Dokumente\uni\bus\xmc\usbCanNode/Libraries/CMSIS/Include\cmsis_gcc.h **** {
 201:D:\dholler\Dokumente\uni\bus\xmc\usbCanNode/Libraries/CMSIS/Include\cmsis_gcc.h ****   uint32_t result;
 202:D:\dholler\Dokumente\uni\bus\xmc\usbCanNode/Libraries/CMSIS/Include\cmsis_gcc.h **** 
 203:D:\dholler\Dokumente\uni\bus\xmc\usbCanNode/Libraries/CMSIS/Include\cmsis_gcc.h ****   __ASM volatile ("MRS %0, primask" : "=r" (result) );
 204:D:\dholler\Dokumente\uni\bus\xmc\usbCanNode/Libraries/CMSIS/Include\cmsis_gcc.h ****   return(result);
 205:D:\dholler\Dokumente\uni\bus\xmc\usbCanNode/Libraries/CMSIS/Include\cmsis_gcc.h **** }
 206:D:\dholler\Dokumente\uni\bus\xmc\usbCanNode/Libraries/CMSIS/Include\cmsis_gcc.h **** 
 207:D:\dholler\Dokumente\uni\bus\xmc\usbCanNode/Libraries/CMSIS/Include\cmsis_gcc.h **** 
 208:D:\dholler\Dokumente\uni\bus\xmc\usbCanNode/Libraries/CMSIS/Include\cmsis_gcc.h **** /**
 209:D:\dholler\Dokumente\uni\bus\xmc\usbCanNode/Libraries/CMSIS/Include\cmsis_gcc.h ****   \brief   Set Priority Mask
 210:D:\dholler\Dokumente\uni\bus\xmc\usbCanNode/Libraries/CMSIS/Include\cmsis_gcc.h ****   \details Assigns the given value to the Priority Mask Register.
 211:D:\dholler\Dokumente\uni\bus\xmc\usbCanNode/Libraries/CMSIS/Include\cmsis_gcc.h ****   \param [in]    priMask  Priority Mask
 212:D:\dholler\Dokumente\uni\bus\xmc\usbCanNode/Libraries/CMSIS/Include\cmsis_gcc.h ****  */
 213:D:\dholler\Dokumente\uni\bus\xmc\usbCanNode/Libraries/CMSIS/Include\cmsis_gcc.h **** __attribute__( ( always_inline ) ) __STATIC_INLINE void __set_PRIMASK(uint32_t priMask)
 214:D:\dholler\Dokumente\uni\bus\xmc\usbCanNode/Libraries/CMSIS/Include\cmsis_gcc.h **** {
 215:D:\dholler\Dokumente\uni\bus\xmc\usbCanNode/Libraries/CMSIS/Include\cmsis_gcc.h ****   __ASM volatile ("MSR primask, %0" : : "r" (priMask) : "memory");
 216:D:\dholler\Dokumente\uni\bus\xmc\usbCanNode/Libraries/CMSIS/Include\cmsis_gcc.h **** }
 217:D:\dholler\Dokumente\uni\bus\xmc\usbCanNode/Libraries/CMSIS/Include\cmsis_gcc.h **** 
 218:D:\dholler\Dokumente\uni\bus\xmc\usbCanNode/Libraries/CMSIS/Include\cmsis_gcc.h **** 
 219:D:\dholler\Dokumente\uni\bus\xmc\usbCanNode/Libraries/CMSIS/Include\cmsis_gcc.h **** #if       (__CORTEX_M >= 0x03U)
 220:D:\dholler\Dokumente\uni\bus\xmc\usbCanNode/Libraries/CMSIS/Include\cmsis_gcc.h **** 
 221:D:\dholler\Dokumente\uni\bus\xmc\usbCanNode/Libraries/CMSIS/Include\cmsis_gcc.h **** /**
 222:D:\dholler\Dokumente\uni\bus\xmc\usbCanNode/Libraries/CMSIS/Include\cmsis_gcc.h ****   \brief   Enable FIQ
 223:D:\dholler\Dokumente\uni\bus\xmc\usbCanNode/Libraries/CMSIS/Include\cmsis_gcc.h ****   \details Enables FIQ interrupts by clearing the F-bit in the CPSR.
 224:D:\dholler\Dokumente\uni\bus\xmc\usbCanNode/Libraries/CMSIS/Include\cmsis_gcc.h ****            Can only be executed in Privileged modes.
 225:D:\dholler\Dokumente\uni\bus\xmc\usbCanNode/Libraries/CMSIS/Include\cmsis_gcc.h ****  */
 226:D:\dholler\Dokumente\uni\bus\xmc\usbCanNode/Libraries/CMSIS/Include\cmsis_gcc.h **** __attribute__( ( always_inline ) ) __STATIC_INLINE void __enable_fault_irq(void)
 227:D:\dholler\Dokumente\uni\bus\xmc\usbCanNode/Libraries/CMSIS/Include\cmsis_gcc.h **** {
 228:D:\dholler\Dokumente\uni\bus\xmc\usbCanNode/Libraries/CMSIS/Include\cmsis_gcc.h ****   __ASM volatile ("cpsie f" : : : "memory");
 229:D:\dholler\Dokumente\uni\bus\xmc\usbCanNode/Libraries/CMSIS/Include\cmsis_gcc.h **** }
 230:D:\dholler\Dokumente\uni\bus\xmc\usbCanNode/Libraries/CMSIS/Include\cmsis_gcc.h **** 
 231:D:\dholler\Dokumente\uni\bus\xmc\usbCanNode/Libraries/CMSIS/Include\cmsis_gcc.h **** 
 232:D:\dholler\Dokumente\uni\bus\xmc\usbCanNode/Libraries/CMSIS/Include\cmsis_gcc.h **** /**
 233:D:\dholler\Dokumente\uni\bus\xmc\usbCanNode/Libraries/CMSIS/Include\cmsis_gcc.h ****   \brief   Disable FIQ
 234:D:\dholler\Dokumente\uni\bus\xmc\usbCanNode/Libraries/CMSIS/Include\cmsis_gcc.h ****   \details Disables FIQ interrupts by setting the F-bit in the CPSR.
 235:D:\dholler\Dokumente\uni\bus\xmc\usbCanNode/Libraries/CMSIS/Include\cmsis_gcc.h ****            Can only be executed in Privileged modes.
 236:D:\dholler\Dokumente\uni\bus\xmc\usbCanNode/Libraries/CMSIS/Include\cmsis_gcc.h ****  */
 237:D:\dholler\Dokumente\uni\bus\xmc\usbCanNode/Libraries/CMSIS/Include\cmsis_gcc.h **** __attribute__( ( always_inline ) ) __STATIC_INLINE void __disable_fault_irq(void)
 238:D:\dholler\Dokumente\uni\bus\xmc\usbCanNode/Libraries/CMSIS/Include\cmsis_gcc.h **** {
 239:D:\dholler\Dokumente\uni\bus\xmc\usbCanNode/Libraries/CMSIS/Include\cmsis_gcc.h ****   __ASM volatile ("cpsid f" : : : "memory");
 240:D:\dholler\Dokumente\uni\bus\xmc\usbCanNode/Libraries/CMSIS/Include\cmsis_gcc.h **** }
 241:D:\dholler\Dokumente\uni\bus\xmc\usbCanNode/Libraries/CMSIS/Include\cmsis_gcc.h **** 
 242:D:\dholler\Dokumente\uni\bus\xmc\usbCanNode/Libraries/CMSIS/Include\cmsis_gcc.h **** 
 243:D:\dholler\Dokumente\uni\bus\xmc\usbCanNode/Libraries/CMSIS/Include\cmsis_gcc.h **** /**
 244:D:\dholler\Dokumente\uni\bus\xmc\usbCanNode/Libraries/CMSIS/Include\cmsis_gcc.h ****   \brief   Get Base Priority
 245:D:\dholler\Dokumente\uni\bus\xmc\usbCanNode/Libraries/CMSIS/Include\cmsis_gcc.h ****   \details Returns the current value of the Base Priority register.
 246:D:\dholler\Dokumente\uni\bus\xmc\usbCanNode/Libraries/CMSIS/Include\cmsis_gcc.h ****   \return               Base Priority register value
 247:D:\dholler\Dokumente\uni\bus\xmc\usbCanNode/Libraries/CMSIS/Include\cmsis_gcc.h ****  */
 248:D:\dholler\Dokumente\uni\bus\xmc\usbCanNode/Libraries/CMSIS/Include\cmsis_gcc.h **** __attribute__( ( always_inline ) ) __STATIC_INLINE uint32_t __get_BASEPRI(void)
 249:D:\dholler\Dokumente\uni\bus\xmc\usbCanNode/Libraries/CMSIS/Include\cmsis_gcc.h **** {
 250:D:\dholler\Dokumente\uni\bus\xmc\usbCanNode/Libraries/CMSIS/Include\cmsis_gcc.h ****   uint32_t result;
 251:D:\dholler\Dokumente\uni\bus\xmc\usbCanNode/Libraries/CMSIS/Include\cmsis_gcc.h **** 
 252:D:\dholler\Dokumente\uni\bus\xmc\usbCanNode/Libraries/CMSIS/Include\cmsis_gcc.h ****   __ASM volatile ("MRS %0, basepri" : "=r" (result) );
 253:D:\dholler\Dokumente\uni\bus\xmc\usbCanNode/Libraries/CMSIS/Include\cmsis_gcc.h ****   return(result);
 254:D:\dholler\Dokumente\uni\bus\xmc\usbCanNode/Libraries/CMSIS/Include\cmsis_gcc.h **** }
 255:D:\dholler\Dokumente\uni\bus\xmc\usbCanNode/Libraries/CMSIS/Include\cmsis_gcc.h **** 
 256:D:\dholler\Dokumente\uni\bus\xmc\usbCanNode/Libraries/CMSIS/Include\cmsis_gcc.h **** 
 257:D:\dholler\Dokumente\uni\bus\xmc\usbCanNode/Libraries/CMSIS/Include\cmsis_gcc.h **** /**
 258:D:\dholler\Dokumente\uni\bus\xmc\usbCanNode/Libraries/CMSIS/Include\cmsis_gcc.h ****   \brief   Set Base Priority
 259:D:\dholler\Dokumente\uni\bus\xmc\usbCanNode/Libraries/CMSIS/Include\cmsis_gcc.h ****   \details Assigns the given value to the Base Priority register.
 260:D:\dholler\Dokumente\uni\bus\xmc\usbCanNode/Libraries/CMSIS/Include\cmsis_gcc.h ****   \param [in]    basePri  Base Priority value to set
 261:D:\dholler\Dokumente\uni\bus\xmc\usbCanNode/Libraries/CMSIS/Include\cmsis_gcc.h ****  */
 262:D:\dholler\Dokumente\uni\bus\xmc\usbCanNode/Libraries/CMSIS/Include\cmsis_gcc.h **** __attribute__( ( always_inline ) ) __STATIC_INLINE void __set_BASEPRI(uint32_t value)
 263:D:\dholler\Dokumente\uni\bus\xmc\usbCanNode/Libraries/CMSIS/Include\cmsis_gcc.h **** {
 264:D:\dholler\Dokumente\uni\bus\xmc\usbCanNode/Libraries/CMSIS/Include\cmsis_gcc.h ****   __ASM volatile ("MSR basepri, %0" : : "r" (value) : "memory");
 265:D:\dholler\Dokumente\uni\bus\xmc\usbCanNode/Libraries/CMSIS/Include\cmsis_gcc.h **** }
 266:D:\dholler\Dokumente\uni\bus\xmc\usbCanNode/Libraries/CMSIS/Include\cmsis_gcc.h **** 
 267:D:\dholler\Dokumente\uni\bus\xmc\usbCanNode/Libraries/CMSIS/Include\cmsis_gcc.h **** 
 268:D:\dholler\Dokumente\uni\bus\xmc\usbCanNode/Libraries/CMSIS/Include\cmsis_gcc.h **** /**
 269:D:\dholler\Dokumente\uni\bus\xmc\usbCanNode/Libraries/CMSIS/Include\cmsis_gcc.h ****   \brief   Set Base Priority with condition
 270:D:\dholler\Dokumente\uni\bus\xmc\usbCanNode/Libraries/CMSIS/Include\cmsis_gcc.h ****   \details Assigns the given value to the Base Priority register only if BASEPRI masking is disable
 271:D:\dholler\Dokumente\uni\bus\xmc\usbCanNode/Libraries/CMSIS/Include\cmsis_gcc.h ****            or the new value increases the BASEPRI priority level.
 272:D:\dholler\Dokumente\uni\bus\xmc\usbCanNode/Libraries/CMSIS/Include\cmsis_gcc.h ****   \param [in]    basePri  Base Priority value to set
 273:D:\dholler\Dokumente\uni\bus\xmc\usbCanNode/Libraries/CMSIS/Include\cmsis_gcc.h ****  */
 274:D:\dholler\Dokumente\uni\bus\xmc\usbCanNode/Libraries/CMSIS/Include\cmsis_gcc.h **** __attribute__( ( always_inline ) ) __STATIC_INLINE void __set_BASEPRI_MAX(uint32_t value)
 275:D:\dholler\Dokumente\uni\bus\xmc\usbCanNode/Libraries/CMSIS/Include\cmsis_gcc.h **** {
 276:D:\dholler\Dokumente\uni\bus\xmc\usbCanNode/Libraries/CMSIS/Include\cmsis_gcc.h ****   __ASM volatile ("MSR basepri_max, %0" : : "r" (value) : "memory");
 277:D:\dholler\Dokumente\uni\bus\xmc\usbCanNode/Libraries/CMSIS/Include\cmsis_gcc.h **** }
 278:D:\dholler\Dokumente\uni\bus\xmc\usbCanNode/Libraries/CMSIS/Include\cmsis_gcc.h **** 
 279:D:\dholler\Dokumente\uni\bus\xmc\usbCanNode/Libraries/CMSIS/Include\cmsis_gcc.h **** 
 280:D:\dholler\Dokumente\uni\bus\xmc\usbCanNode/Libraries/CMSIS/Include\cmsis_gcc.h **** /**
 281:D:\dholler\Dokumente\uni\bus\xmc\usbCanNode/Libraries/CMSIS/Include\cmsis_gcc.h ****   \brief   Get Fault Mask
 282:D:\dholler\Dokumente\uni\bus\xmc\usbCanNode/Libraries/CMSIS/Include\cmsis_gcc.h ****   \details Returns the current value of the Fault Mask register.
 283:D:\dholler\Dokumente\uni\bus\xmc\usbCanNode/Libraries/CMSIS/Include\cmsis_gcc.h ****   \return               Fault Mask register value
 284:D:\dholler\Dokumente\uni\bus\xmc\usbCanNode/Libraries/CMSIS/Include\cmsis_gcc.h ****  */
 285:D:\dholler\Dokumente\uni\bus\xmc\usbCanNode/Libraries/CMSIS/Include\cmsis_gcc.h **** __attribute__( ( always_inline ) ) __STATIC_INLINE uint32_t __get_FAULTMASK(void)
 286:D:\dholler\Dokumente\uni\bus\xmc\usbCanNode/Libraries/CMSIS/Include\cmsis_gcc.h **** {
 287:D:\dholler\Dokumente\uni\bus\xmc\usbCanNode/Libraries/CMSIS/Include\cmsis_gcc.h ****   uint32_t result;
 288:D:\dholler\Dokumente\uni\bus\xmc\usbCanNode/Libraries/CMSIS/Include\cmsis_gcc.h **** 
 289:D:\dholler\Dokumente\uni\bus\xmc\usbCanNode/Libraries/CMSIS/Include\cmsis_gcc.h ****   __ASM volatile ("MRS %0, faultmask" : "=r" (result) );
 290:D:\dholler\Dokumente\uni\bus\xmc\usbCanNode/Libraries/CMSIS/Include\cmsis_gcc.h ****   return(result);
 291:D:\dholler\Dokumente\uni\bus\xmc\usbCanNode/Libraries/CMSIS/Include\cmsis_gcc.h **** }
 292:D:\dholler\Dokumente\uni\bus\xmc\usbCanNode/Libraries/CMSIS/Include\cmsis_gcc.h **** 
 293:D:\dholler\Dokumente\uni\bus\xmc\usbCanNode/Libraries/CMSIS/Include\cmsis_gcc.h **** 
 294:D:\dholler\Dokumente\uni\bus\xmc\usbCanNode/Libraries/CMSIS/Include\cmsis_gcc.h **** /**
 295:D:\dholler\Dokumente\uni\bus\xmc\usbCanNode/Libraries/CMSIS/Include\cmsis_gcc.h ****   \brief   Set Fault Mask
 296:D:\dholler\Dokumente\uni\bus\xmc\usbCanNode/Libraries/CMSIS/Include\cmsis_gcc.h ****   \details Assigns the given value to the Fault Mask register.
 297:D:\dholler\Dokumente\uni\bus\xmc\usbCanNode/Libraries/CMSIS/Include\cmsis_gcc.h ****   \param [in]    faultMask  Fault Mask value to set
 298:D:\dholler\Dokumente\uni\bus\xmc\usbCanNode/Libraries/CMSIS/Include\cmsis_gcc.h ****  */
 299:D:\dholler\Dokumente\uni\bus\xmc\usbCanNode/Libraries/CMSIS/Include\cmsis_gcc.h **** __attribute__( ( always_inline ) ) __STATIC_INLINE void __set_FAULTMASK(uint32_t faultMask)
 300:D:\dholler\Dokumente\uni\bus\xmc\usbCanNode/Libraries/CMSIS/Include\cmsis_gcc.h **** {
 301:D:\dholler\Dokumente\uni\bus\xmc\usbCanNode/Libraries/CMSIS/Include\cmsis_gcc.h ****   __ASM volatile ("MSR faultmask, %0" : : "r" (faultMask) : "memory");
 302:D:\dholler\Dokumente\uni\bus\xmc\usbCanNode/Libraries/CMSIS/Include\cmsis_gcc.h **** }
 303:D:\dholler\Dokumente\uni\bus\xmc\usbCanNode/Libraries/CMSIS/Include\cmsis_gcc.h **** 
 304:D:\dholler\Dokumente\uni\bus\xmc\usbCanNode/Libraries/CMSIS/Include\cmsis_gcc.h **** #endif /* (__CORTEX_M >= 0x03U) */
 305:D:\dholler\Dokumente\uni\bus\xmc\usbCanNode/Libraries/CMSIS/Include\cmsis_gcc.h **** 
 306:D:\dholler\Dokumente\uni\bus\xmc\usbCanNode/Libraries/CMSIS/Include\cmsis_gcc.h **** 
 307:D:\dholler\Dokumente\uni\bus\xmc\usbCanNode/Libraries/CMSIS/Include\cmsis_gcc.h **** #if       (__CORTEX_M == 0x04U) || (__CORTEX_M == 0x07U)
 308:D:\dholler\Dokumente\uni\bus\xmc\usbCanNode/Libraries/CMSIS/Include\cmsis_gcc.h **** 
 309:D:\dholler\Dokumente\uni\bus\xmc\usbCanNode/Libraries/CMSIS/Include\cmsis_gcc.h **** /**
 310:D:\dholler\Dokumente\uni\bus\xmc\usbCanNode/Libraries/CMSIS/Include\cmsis_gcc.h ****   \brief   Get FPSCR
 311:D:\dholler\Dokumente\uni\bus\xmc\usbCanNode/Libraries/CMSIS/Include\cmsis_gcc.h ****   \details Returns the current value of the Floating Point Status/Control register.
 312:D:\dholler\Dokumente\uni\bus\xmc\usbCanNode/Libraries/CMSIS/Include\cmsis_gcc.h ****   \return               Floating Point Status/Control register value
 313:D:\dholler\Dokumente\uni\bus\xmc\usbCanNode/Libraries/CMSIS/Include\cmsis_gcc.h ****  */
 314:D:\dholler\Dokumente\uni\bus\xmc\usbCanNode/Libraries/CMSIS/Include\cmsis_gcc.h **** __attribute__( ( always_inline ) ) __STATIC_INLINE uint32_t __get_FPSCR(void)
 315:D:\dholler\Dokumente\uni\bus\xmc\usbCanNode/Libraries/CMSIS/Include\cmsis_gcc.h **** {
 316:D:\dholler\Dokumente\uni\bus\xmc\usbCanNode/Libraries/CMSIS/Include\cmsis_gcc.h **** #if (__FPU_PRESENT == 1U) && (__FPU_USED == 1U)
 317:D:\dholler\Dokumente\uni\bus\xmc\usbCanNode/Libraries/CMSIS/Include\cmsis_gcc.h ****   uint32_t result;
 318:D:\dholler\Dokumente\uni\bus\xmc\usbCanNode/Libraries/CMSIS/Include\cmsis_gcc.h **** 
 319:D:\dholler\Dokumente\uni\bus\xmc\usbCanNode/Libraries/CMSIS/Include\cmsis_gcc.h ****   /* Empty asm statement works as a scheduling barrier */
 320:D:\dholler\Dokumente\uni\bus\xmc\usbCanNode/Libraries/CMSIS/Include\cmsis_gcc.h ****   __ASM volatile ("");
 321:D:\dholler\Dokumente\uni\bus\xmc\usbCanNode/Libraries/CMSIS/Include\cmsis_gcc.h ****   __ASM volatile ("VMRS %0, fpscr" : "=r" (result) );
 322:D:\dholler\Dokumente\uni\bus\xmc\usbCanNode/Libraries/CMSIS/Include\cmsis_gcc.h ****   __ASM volatile ("");
 323:D:\dholler\Dokumente\uni\bus\xmc\usbCanNode/Libraries/CMSIS/Include\cmsis_gcc.h ****   return(result);
 324:D:\dholler\Dokumente\uni\bus\xmc\usbCanNode/Libraries/CMSIS/Include\cmsis_gcc.h **** #else
 325:D:\dholler\Dokumente\uni\bus\xmc\usbCanNode/Libraries/CMSIS/Include\cmsis_gcc.h ****    return(0);
 326:D:\dholler\Dokumente\uni\bus\xmc\usbCanNode/Libraries/CMSIS/Include\cmsis_gcc.h **** #endif
 327:D:\dholler\Dokumente\uni\bus\xmc\usbCanNode/Libraries/CMSIS/Include\cmsis_gcc.h **** }
 328:D:\dholler\Dokumente\uni\bus\xmc\usbCanNode/Libraries/CMSIS/Include\cmsis_gcc.h **** 
 329:D:\dholler\Dokumente\uni\bus\xmc\usbCanNode/Libraries/CMSIS/Include\cmsis_gcc.h **** 
 330:D:\dholler\Dokumente\uni\bus\xmc\usbCanNode/Libraries/CMSIS/Include\cmsis_gcc.h **** /**
 331:D:\dholler\Dokumente\uni\bus\xmc\usbCanNode/Libraries/CMSIS/Include\cmsis_gcc.h ****   \brief   Set FPSCR
 332:D:\dholler\Dokumente\uni\bus\xmc\usbCanNode/Libraries/CMSIS/Include\cmsis_gcc.h ****   \details Assigns the given value to the Floating Point Status/Control register.
 333:D:\dholler\Dokumente\uni\bus\xmc\usbCanNode/Libraries/CMSIS/Include\cmsis_gcc.h ****   \param [in]    fpscr  Floating Point Status/Control value to set
 334:D:\dholler\Dokumente\uni\bus\xmc\usbCanNode/Libraries/CMSIS/Include\cmsis_gcc.h ****  */
 335:D:\dholler\Dokumente\uni\bus\xmc\usbCanNode/Libraries/CMSIS/Include\cmsis_gcc.h **** __attribute__( ( always_inline ) ) __STATIC_INLINE void __set_FPSCR(uint32_t fpscr)
 336:D:\dholler\Dokumente\uni\bus\xmc\usbCanNode/Libraries/CMSIS/Include\cmsis_gcc.h **** {
 337:D:\dholler\Dokumente\uni\bus\xmc\usbCanNode/Libraries/CMSIS/Include\cmsis_gcc.h **** #if (__FPU_PRESENT == 1U) && (__FPU_USED == 1U)
 338:D:\dholler\Dokumente\uni\bus\xmc\usbCanNode/Libraries/CMSIS/Include\cmsis_gcc.h ****   /* Empty asm statement works as a scheduling barrier */
 339:D:\dholler\Dokumente\uni\bus\xmc\usbCanNode/Libraries/CMSIS/Include\cmsis_gcc.h ****   __ASM volatile ("");
 340:D:\dholler\Dokumente\uni\bus\xmc\usbCanNode/Libraries/CMSIS/Include\cmsis_gcc.h ****   __ASM volatile ("VMSR fpscr, %0" : : "r" (fpscr) : "vfpcc");
 341:D:\dholler\Dokumente\uni\bus\xmc\usbCanNode/Libraries/CMSIS/Include\cmsis_gcc.h ****   __ASM volatile ("");
 342:D:\dholler\Dokumente\uni\bus\xmc\usbCanNode/Libraries/CMSIS/Include\cmsis_gcc.h **** #endif
 343:D:\dholler\Dokumente\uni\bus\xmc\usbCanNode/Libraries/CMSIS/Include\cmsis_gcc.h **** }
 344:D:\dholler\Dokumente\uni\bus\xmc\usbCanNode/Libraries/CMSIS/Include\cmsis_gcc.h **** 
 345:D:\dholler\Dokumente\uni\bus\xmc\usbCanNode/Libraries/CMSIS/Include\cmsis_gcc.h **** #endif /* (__CORTEX_M == 0x04U) || (__CORTEX_M == 0x07U) */
 346:D:\dholler\Dokumente\uni\bus\xmc\usbCanNode/Libraries/CMSIS/Include\cmsis_gcc.h **** 
 347:D:\dholler\Dokumente\uni\bus\xmc\usbCanNode/Libraries/CMSIS/Include\cmsis_gcc.h **** 
 348:D:\dholler\Dokumente\uni\bus\xmc\usbCanNode/Libraries/CMSIS/Include\cmsis_gcc.h **** 
 349:D:\dholler\Dokumente\uni\bus\xmc\usbCanNode/Libraries/CMSIS/Include\cmsis_gcc.h **** /*@} end of CMSIS_Core_RegAccFunctions */
 350:D:\dholler\Dokumente\uni\bus\xmc\usbCanNode/Libraries/CMSIS/Include\cmsis_gcc.h **** 
 351:D:\dholler\Dokumente\uni\bus\xmc\usbCanNode/Libraries/CMSIS/Include\cmsis_gcc.h **** 
 352:D:\dholler\Dokumente\uni\bus\xmc\usbCanNode/Libraries/CMSIS/Include\cmsis_gcc.h **** /* ##########################  Core Instruction Access  ######################### */
 353:D:\dholler\Dokumente\uni\bus\xmc\usbCanNode/Libraries/CMSIS/Include\cmsis_gcc.h **** /** \defgroup CMSIS_Core_InstructionInterface CMSIS Core Instruction Interface
 354:D:\dholler\Dokumente\uni\bus\xmc\usbCanNode/Libraries/CMSIS/Include\cmsis_gcc.h ****   Access to dedicated instructions
 355:D:\dholler\Dokumente\uni\bus\xmc\usbCanNode/Libraries/CMSIS/Include\cmsis_gcc.h ****   @{
 356:D:\dholler\Dokumente\uni\bus\xmc\usbCanNode/Libraries/CMSIS/Include\cmsis_gcc.h **** */
 357:D:\dholler\Dokumente\uni\bus\xmc\usbCanNode/Libraries/CMSIS/Include\cmsis_gcc.h **** 
 358:D:\dholler\Dokumente\uni\bus\xmc\usbCanNode/Libraries/CMSIS/Include\cmsis_gcc.h **** /* Define macros for porting to both thumb1 and thumb2.
 359:D:\dholler\Dokumente\uni\bus\xmc\usbCanNode/Libraries/CMSIS/Include\cmsis_gcc.h ****  * For thumb1, use low register (r0-r7), specified by constraint "l"
 360:D:\dholler\Dokumente\uni\bus\xmc\usbCanNode/Libraries/CMSIS/Include\cmsis_gcc.h ****  * Otherwise, use general registers, specified by constraint "r" */
 361:D:\dholler\Dokumente\uni\bus\xmc\usbCanNode/Libraries/CMSIS/Include\cmsis_gcc.h **** #if defined (__thumb__) && !defined (__thumb2__)
 362:D:\dholler\Dokumente\uni\bus\xmc\usbCanNode/Libraries/CMSIS/Include\cmsis_gcc.h **** #define __CMSIS_GCC_OUT_REG(r) "=l" (r)
 363:D:\dholler\Dokumente\uni\bus\xmc\usbCanNode/Libraries/CMSIS/Include\cmsis_gcc.h **** #define __CMSIS_GCC_USE_REG(r) "l" (r)
 364:D:\dholler\Dokumente\uni\bus\xmc\usbCanNode/Libraries/CMSIS/Include\cmsis_gcc.h **** #else
 365:D:\dholler\Dokumente\uni\bus\xmc\usbCanNode/Libraries/CMSIS/Include\cmsis_gcc.h **** #define __CMSIS_GCC_OUT_REG(r) "=r" (r)
 366:D:\dholler\Dokumente\uni\bus\xmc\usbCanNode/Libraries/CMSIS/Include\cmsis_gcc.h **** #define __CMSIS_GCC_USE_REG(r) "r" (r)
 367:D:\dholler\Dokumente\uni\bus\xmc\usbCanNode/Libraries/CMSIS/Include\cmsis_gcc.h **** #endif
 368:D:\dholler\Dokumente\uni\bus\xmc\usbCanNode/Libraries/CMSIS/Include\cmsis_gcc.h **** 
 369:D:\dholler\Dokumente\uni\bus\xmc\usbCanNode/Libraries/CMSIS/Include\cmsis_gcc.h **** /**
 370:D:\dholler\Dokumente\uni\bus\xmc\usbCanNode/Libraries/CMSIS/Include\cmsis_gcc.h ****   \brief   No Operation
 371:D:\dholler\Dokumente\uni\bus\xmc\usbCanNode/Libraries/CMSIS/Include\cmsis_gcc.h ****   \details No Operation does nothing. This instruction can be used for code alignment purposes.
 372:D:\dholler\Dokumente\uni\bus\xmc\usbCanNode/Libraries/CMSIS/Include\cmsis_gcc.h ****  */
 373:D:\dholler\Dokumente\uni\bus\xmc\usbCanNode/Libraries/CMSIS/Include\cmsis_gcc.h **** __attribute__((always_inline)) __STATIC_INLINE void __NOP(void)
 374:D:\dholler\Dokumente\uni\bus\xmc\usbCanNode/Libraries/CMSIS/Include\cmsis_gcc.h **** {
 375:D:\dholler\Dokumente\uni\bus\xmc\usbCanNode/Libraries/CMSIS/Include\cmsis_gcc.h ****   __ASM volatile ("nop");
 376:D:\dholler\Dokumente\uni\bus\xmc\usbCanNode/Libraries/CMSIS/Include\cmsis_gcc.h **** }
 377:D:\dholler\Dokumente\uni\bus\xmc\usbCanNode/Libraries/CMSIS/Include\cmsis_gcc.h **** 
 378:D:\dholler\Dokumente\uni\bus\xmc\usbCanNode/Libraries/CMSIS/Include\cmsis_gcc.h **** 
 379:D:\dholler\Dokumente\uni\bus\xmc\usbCanNode/Libraries/CMSIS/Include\cmsis_gcc.h **** /**
 380:D:\dholler\Dokumente\uni\bus\xmc\usbCanNode/Libraries/CMSIS/Include\cmsis_gcc.h ****   \brief   Wait For Interrupt
 381:D:\dholler\Dokumente\uni\bus\xmc\usbCanNode/Libraries/CMSIS/Include\cmsis_gcc.h ****   \details Wait For Interrupt is a hint instruction that suspends execution until one of a number o
 382:D:\dholler\Dokumente\uni\bus\xmc\usbCanNode/Libraries/CMSIS/Include\cmsis_gcc.h ****  */
 383:D:\dholler\Dokumente\uni\bus\xmc\usbCanNode/Libraries/CMSIS/Include\cmsis_gcc.h **** __attribute__((always_inline)) __STATIC_INLINE void __WFI(void)
 384:D:\dholler\Dokumente\uni\bus\xmc\usbCanNode/Libraries/CMSIS/Include\cmsis_gcc.h **** {
 385:D:\dholler\Dokumente\uni\bus\xmc\usbCanNode/Libraries/CMSIS/Include\cmsis_gcc.h ****   __ASM volatile ("wfi");
 386:D:\dholler\Dokumente\uni\bus\xmc\usbCanNode/Libraries/CMSIS/Include\cmsis_gcc.h **** }
 387:D:\dholler\Dokumente\uni\bus\xmc\usbCanNode/Libraries/CMSIS/Include\cmsis_gcc.h **** 
 388:D:\dholler\Dokumente\uni\bus\xmc\usbCanNode/Libraries/CMSIS/Include\cmsis_gcc.h **** 
 389:D:\dholler\Dokumente\uni\bus\xmc\usbCanNode/Libraries/CMSIS/Include\cmsis_gcc.h **** /**
 390:D:\dholler\Dokumente\uni\bus\xmc\usbCanNode/Libraries/CMSIS/Include\cmsis_gcc.h ****   \brief   Wait For Event
 391:D:\dholler\Dokumente\uni\bus\xmc\usbCanNode/Libraries/CMSIS/Include\cmsis_gcc.h ****   \details Wait For Event is a hint instruction that permits the processor to enter
 392:D:\dholler\Dokumente\uni\bus\xmc\usbCanNode/Libraries/CMSIS/Include\cmsis_gcc.h ****     a low-power state until one of a number of events occurs.
 393:D:\dholler\Dokumente\uni\bus\xmc\usbCanNode/Libraries/CMSIS/Include\cmsis_gcc.h ****  */
 394:D:\dholler\Dokumente\uni\bus\xmc\usbCanNode/Libraries/CMSIS/Include\cmsis_gcc.h **** __attribute__((always_inline)) __STATIC_INLINE void __WFE(void)
 395:D:\dholler\Dokumente\uni\bus\xmc\usbCanNode/Libraries/CMSIS/Include\cmsis_gcc.h **** {
 396:D:\dholler\Dokumente\uni\bus\xmc\usbCanNode/Libraries/CMSIS/Include\cmsis_gcc.h ****   __ASM volatile ("wfe");
 397:D:\dholler\Dokumente\uni\bus\xmc\usbCanNode/Libraries/CMSIS/Include\cmsis_gcc.h **** }
 398:D:\dholler\Dokumente\uni\bus\xmc\usbCanNode/Libraries/CMSIS/Include\cmsis_gcc.h **** 
 399:D:\dholler\Dokumente\uni\bus\xmc\usbCanNode/Libraries/CMSIS/Include\cmsis_gcc.h **** 
 400:D:\dholler\Dokumente\uni\bus\xmc\usbCanNode/Libraries/CMSIS/Include\cmsis_gcc.h **** /**
 401:D:\dholler\Dokumente\uni\bus\xmc\usbCanNode/Libraries/CMSIS/Include\cmsis_gcc.h ****   \brief   Send Event
 402:D:\dholler\Dokumente\uni\bus\xmc\usbCanNode/Libraries/CMSIS/Include\cmsis_gcc.h ****   \details Send Event is a hint instruction. It causes an event to be signaled to the CPU.
 403:D:\dholler\Dokumente\uni\bus\xmc\usbCanNode/Libraries/CMSIS/Include\cmsis_gcc.h ****  */
 404:D:\dholler\Dokumente\uni\bus\xmc\usbCanNode/Libraries/CMSIS/Include\cmsis_gcc.h **** __attribute__((always_inline)) __STATIC_INLINE void __SEV(void)
 405:D:\dholler\Dokumente\uni\bus\xmc\usbCanNode/Libraries/CMSIS/Include\cmsis_gcc.h **** {
 406:D:\dholler\Dokumente\uni\bus\xmc\usbCanNode/Libraries/CMSIS/Include\cmsis_gcc.h ****   __ASM volatile ("sev");
 407:D:\dholler\Dokumente\uni\bus\xmc\usbCanNode/Libraries/CMSIS/Include\cmsis_gcc.h **** }
 408:D:\dholler\Dokumente\uni\bus\xmc\usbCanNode/Libraries/CMSIS/Include\cmsis_gcc.h **** 
 409:D:\dholler\Dokumente\uni\bus\xmc\usbCanNode/Libraries/CMSIS/Include\cmsis_gcc.h **** 
 410:D:\dholler\Dokumente\uni\bus\xmc\usbCanNode/Libraries/CMSIS/Include\cmsis_gcc.h **** /**
 411:D:\dholler\Dokumente\uni\bus\xmc\usbCanNode/Libraries/CMSIS/Include\cmsis_gcc.h ****   \brief   Instruction Synchronization Barrier
 412:D:\dholler\Dokumente\uni\bus\xmc\usbCanNode/Libraries/CMSIS/Include\cmsis_gcc.h ****   \details Instruction Synchronization Barrier flushes the pipeline in the processor,
 413:D:\dholler\Dokumente\uni\bus\xmc\usbCanNode/Libraries/CMSIS/Include\cmsis_gcc.h ****            so that all instructions following the ISB are fetched from cache or memory,
 414:D:\dholler\Dokumente\uni\bus\xmc\usbCanNode/Libraries/CMSIS/Include\cmsis_gcc.h ****            after the instruction has been completed.
 415:D:\dholler\Dokumente\uni\bus\xmc\usbCanNode/Libraries/CMSIS/Include\cmsis_gcc.h ****  */
 416:D:\dholler\Dokumente\uni\bus\xmc\usbCanNode/Libraries/CMSIS/Include\cmsis_gcc.h **** __attribute__((always_inline)) __STATIC_INLINE void __ISB(void)
 417:D:\dholler\Dokumente\uni\bus\xmc\usbCanNode/Libraries/CMSIS/Include\cmsis_gcc.h **** {
 418:D:\dholler\Dokumente\uni\bus\xmc\usbCanNode/Libraries/CMSIS/Include\cmsis_gcc.h ****   __ASM volatile ("isb 0xF":::"memory");
 419:D:\dholler\Dokumente\uni\bus\xmc\usbCanNode/Libraries/CMSIS/Include\cmsis_gcc.h **** }
 420:D:\dholler\Dokumente\uni\bus\xmc\usbCanNode/Libraries/CMSIS/Include\cmsis_gcc.h **** 
 421:D:\dholler\Dokumente\uni\bus\xmc\usbCanNode/Libraries/CMSIS/Include\cmsis_gcc.h **** 
 422:D:\dholler\Dokumente\uni\bus\xmc\usbCanNode/Libraries/CMSIS/Include\cmsis_gcc.h **** /**
 423:D:\dholler\Dokumente\uni\bus\xmc\usbCanNode/Libraries/CMSIS/Include\cmsis_gcc.h ****   \brief   Data Synchronization Barrier
 424:D:\dholler\Dokumente\uni\bus\xmc\usbCanNode/Libraries/CMSIS/Include\cmsis_gcc.h ****   \details Acts as a special kind of Data Memory Barrier.
 425:D:\dholler\Dokumente\uni\bus\xmc\usbCanNode/Libraries/CMSIS/Include\cmsis_gcc.h ****            It completes when all explicit memory accesses before this instruction complete.
 426:D:\dholler\Dokumente\uni\bus\xmc\usbCanNode/Libraries/CMSIS/Include\cmsis_gcc.h ****  */
 427:D:\dholler\Dokumente\uni\bus\xmc\usbCanNode/Libraries/CMSIS/Include\cmsis_gcc.h **** __attribute__((always_inline)) __STATIC_INLINE void __DSB(void)
 428:D:\dholler\Dokumente\uni\bus\xmc\usbCanNode/Libraries/CMSIS/Include\cmsis_gcc.h **** {
 429:D:\dholler\Dokumente\uni\bus\xmc\usbCanNode/Libraries/CMSIS/Include\cmsis_gcc.h ****   __ASM volatile ("dsb 0xF":::"memory");
 160              	 .loc 2 429 0
 161              	
 162 0012 BFF34F8F 	 dsb 0xF
 163              	
 164              	 .thumb
 165              	.LBE9:
 166              	.LBE8:
 167              	.LBB10:
 168              	.LBB11:
 418:D:\dholler\Dokumente\uni\bus\xmc\usbCanNode/Libraries/CMSIS/Include\cmsis_gcc.h **** }
 169              	 .loc 2 418 0
 170              	
 171 0016 BFF36F8F 	 isb 0xF
 172              	
 173              	 .thumb
 174              	.LBE11:
 175              	.LBE10:
  94:../Dave/Generated/CPU_CTRL_XMC4/cpu_ctrl_xmc4.c ****   __DSB(); /* Ensure MPU settings take effect */
  95:../Dave/Generated/CPU_CTRL_XMC4/cpu_ctrl_xmc4.c ****   __ISB(); /* Sequence instruction fetches using updated settings */
  96:../Dave/Generated/CPU_CTRL_XMC4/cpu_ctrl_xmc4.c **** }
 176              	 .loc 1 96 0
 177 001a 0C37     	 adds r7,r7,#12
 178              	.LCFI15:
 179              	 .cfi_def_cfa_offset 4
 180 001c BD46     	 mov sp,r7
 181              	.LCFI16:
 182              	 .cfi_def_cfa_register 13
 183              	 
 184 001e 5DF8047B 	 ldr r7,[sp],#4
 185              	.LCFI17:
 186              	 .cfi_restore 7
 187              	 .cfi_def_cfa_offset 0
 188 0022 7047     	 bx lr
 189              	.L7:
 190              	 .align 2
 191              	.L6:
 192 0024 90ED00E0 	 .word -536810096
 193              	 .cfi_endproc
 194              	.LFE130:
 196              	 .section .text.CPU_CTRL_XMC4_MPU_Disable,"ax",%progbits
 197              	 .align 2
 198              	 .global CPU_CTRL_XMC4_MPU_Disable
 199              	 .thumb
 200              	 .thumb_func
 202              	CPU_CTRL_XMC4_MPU_Disable:
 203              	.LFB131:
  97:../Dave/Generated/CPU_CTRL_XMC4/cpu_ctrl_xmc4.c **** 
  98:../Dave/Generated/CPU_CTRL_XMC4/cpu_ctrl_xmc4.c **** /*
  99:../Dave/Generated/CPU_CTRL_XMC4/cpu_ctrl_xmc4.c ****  * API to disable the MPU
 100:../Dave/Generated/CPU_CTRL_XMC4/cpu_ctrl_xmc4.c ****  */
 101:../Dave/Generated/CPU_CTRL_XMC4/cpu_ctrl_xmc4.c **** void CPU_CTRL_XMC4_MPU_Disable(void)
 102:../Dave/Generated/CPU_CTRL_XMC4/cpu_ctrl_xmc4.c **** {
 204              	 .loc 1 102 0
 205              	 .cfi_startproc
 206              	 
 207              	 
 208              	 
 209 0000 80B4     	 push {r7}
 210              	.LCFI18:
 211              	 .cfi_def_cfa_offset 4
 212              	 .cfi_offset 7,-4
 213 0002 00AF     	 add r7,sp,#0
 214              	.LCFI19:
 215              	 .cfi_def_cfa_register 7
 216              	.LBB12:
 217              	.LBB13:
 430:D:\dholler\Dokumente\uni\bus\xmc\usbCanNode/Libraries/CMSIS/Include\cmsis_gcc.h **** }
 431:D:\dholler\Dokumente\uni\bus\xmc\usbCanNode/Libraries/CMSIS/Include\cmsis_gcc.h **** 
 432:D:\dholler\Dokumente\uni\bus\xmc\usbCanNode/Libraries/CMSIS/Include\cmsis_gcc.h **** 
 433:D:\dholler\Dokumente\uni\bus\xmc\usbCanNode/Libraries/CMSIS/Include\cmsis_gcc.h **** /**
 434:D:\dholler\Dokumente\uni\bus\xmc\usbCanNode/Libraries/CMSIS/Include\cmsis_gcc.h ****   \brief   Data Memory Barrier
 435:D:\dholler\Dokumente\uni\bus\xmc\usbCanNode/Libraries/CMSIS/Include\cmsis_gcc.h ****   \details Ensures the apparent order of the explicit memory operations before
 436:D:\dholler\Dokumente\uni\bus\xmc\usbCanNode/Libraries/CMSIS/Include\cmsis_gcc.h ****            and after the instruction, without ensuring their completion.
 437:D:\dholler\Dokumente\uni\bus\xmc\usbCanNode/Libraries/CMSIS/Include\cmsis_gcc.h ****  */
 438:D:\dholler\Dokumente\uni\bus\xmc\usbCanNode/Libraries/CMSIS/Include\cmsis_gcc.h **** __attribute__((always_inline)) __STATIC_INLINE void __DMB(void)
 439:D:\dholler\Dokumente\uni\bus\xmc\usbCanNode/Libraries/CMSIS/Include\cmsis_gcc.h **** {
 440:D:\dholler\Dokumente\uni\bus\xmc\usbCanNode/Libraries/CMSIS/Include\cmsis_gcc.h ****   __ASM volatile ("dmb 0xF":::"memory");
 218              	 .loc 2 440 0
 219              	
 220 0004 BFF35F8F 	 dmb 0xF
 221              	
 222              	 .thumb
 223              	.LBE13:
 224              	.LBE12:
 103:../Dave/Generated/CPU_CTRL_XMC4/cpu_ctrl_xmc4.c ****   __DMB(); /* make sure all transfers are done */
 104:../Dave/Generated/CPU_CTRL_XMC4/cpu_ctrl_xmc4.c ****   MPU->CTRL = 0;
 225              	 .loc 1 104 0
 226 0008 034B     	 ldr r3,.L9
 227 000a 0022     	 movs r2,#0
 228 000c 5A60     	 str r2,[r3,#4]
 105:../Dave/Generated/CPU_CTRL_XMC4/cpu_ctrl_xmc4.c **** }
 229              	 .loc 1 105 0
 230 000e BD46     	 mov sp,r7
 231              	.LCFI20:
 232              	 .cfi_def_cfa_register 13
 233              	 
 234 0010 5DF8047B 	 ldr r7,[sp],#4
 235              	.LCFI21:
 236              	 .cfi_restore 7
 237              	 .cfi_def_cfa_offset 0
 238 0014 7047     	 bx lr
 239              	.L10:
 240 0016 00BF     	 .align 2
 241              	.L9:
 242 0018 90ED00E0 	 .word -536810096
 243              	 .cfi_endproc
 244              	.LFE131:
 246              	 .text
 247              	.Letext0:
 248              	 .file 3 "e:\\davev4\\dave-4.1.4\\eclipse\\arm-gcc-49\\arm-none-eabi\\include\\machine\\_default_types.h"
 249              	 .file 4 "e:\\davev4\\dave-4.1.4\\eclipse\\arm-gcc-49\\arm-none-eabi\\include\\stdint.h"
 250              	 .file 5 "D:\\dholler\\Dokumente\\uni\\bus\\xmc\\usbCanNode/Libraries/CMSIS/Include/core_cm4.h"
 251              	 .file 6 "D:\\dholler\\Dokumente\\uni\\bus\\xmc\\usbCanNode\\Dave\\Generated/DAVE_Common.h"
 252              	 .file 7 "../Dave/Generated/CPU_CTRL_XMC4/cpu_ctrl_xmc4.h"