   1              	 .syntax unified
   2              	 .cpu cortex-m4
   3              	 .eabi_attribute 27,3
   4              	 .fpu fpv4-sp-d16
   5              	 .eabi_attribute 20,1
   6              	 .eabi_attribute 21,1
   7              	 .eabi_attribute 23,3
   8              	 .eabi_attribute 24,1
   9              	 .eabi_attribute 25,1
  10              	 .eabi_attribute 26,1
  11              	 .eabi_attribute 30,6
  12              	 .eabi_attribute 34,1
  13              	 .eabi_attribute 18,4
  14              	 .thumb
  15              	 .file "xmc_can.c"
  16              	 .text
  17              	.Ltext0:
  18              	 .cfi_sections .debug_frame
  19              	 .section .text.XMC_CAN_PanelControl,"ax",%progbits
  20              	 .align 2
  21              	 .thumb
  22              	 .thumb_func
  24              	XMC_CAN_PanelControl:
  25              	.LFB153:
  26              	 .file 1 "D:\\dholler\\Dokumente\\uni\\bus\\xmc\\usbCanNode\\Libraries\\XMCLib\\inc/xmc_can.h"
   1:D:\dholler\Dokumente\uni\bus\xmc\usbCanNode\Libraries\XMCLib\inc\xmc_can.h **** /**
   2:D:\dholler\Dokumente\uni\bus\xmc\usbCanNode\Libraries\XMCLib\inc\xmc_can.h ****  * @file xmc_can.h
   3:D:\dholler\Dokumente\uni\bus\xmc\usbCanNode\Libraries\XMCLib\inc\xmc_can.h ****  * @date 2016-01-12
   4:D:\dholler\Dokumente\uni\bus\xmc\usbCanNode\Libraries\XMCLib\inc\xmc_can.h ****  *
   5:D:\dholler\Dokumente\uni\bus\xmc\usbCanNode\Libraries\XMCLib\inc\xmc_can.h ****  * @cond
   6:D:\dholler\Dokumente\uni\bus\xmc\usbCanNode\Libraries\XMCLib\inc\xmc_can.h ****  **************************************************************************************************
   7:D:\dholler\Dokumente\uni\bus\xmc\usbCanNode\Libraries\XMCLib\inc\xmc_can.h ****  * XMClib v2.1.6 - XMC Peripheral Driver Library 
   8:D:\dholler\Dokumente\uni\bus\xmc\usbCanNode\Libraries\XMCLib\inc\xmc_can.h ****  *
   9:D:\dholler\Dokumente\uni\bus\xmc\usbCanNode\Libraries\XMCLib\inc\xmc_can.h ****  * Copyright (c) 2015-2016, Infineon Technologies AG
  10:D:\dholler\Dokumente\uni\bus\xmc\usbCanNode\Libraries\XMCLib\inc\xmc_can.h ****  * All rights reserved.                        
  11:D:\dholler\Dokumente\uni\bus\xmc\usbCanNode\Libraries\XMCLib\inc\xmc_can.h ****  *                                             
  12:D:\dholler\Dokumente\uni\bus\xmc\usbCanNode\Libraries\XMCLib\inc\xmc_can.h ****  * Redistribution and use in source and binary forms, with or without modification,are permitted pr
  13:D:\dholler\Dokumente\uni\bus\xmc\usbCanNode\Libraries\XMCLib\inc\xmc_can.h ****  * following conditions are met:   
  14:D:\dholler\Dokumente\uni\bus\xmc\usbCanNode\Libraries\XMCLib\inc\xmc_can.h ****  *                                                                              
  15:D:\dholler\Dokumente\uni\bus\xmc\usbCanNode\Libraries\XMCLib\inc\xmc_can.h ****  * Redistributions of source code must retain the above copyright notice, this list of conditions a
  16:D:\dholler\Dokumente\uni\bus\xmc\usbCanNode\Libraries\XMCLib\inc\xmc_can.h ****  * disclaimer.                        
  17:D:\dholler\Dokumente\uni\bus\xmc\usbCanNode\Libraries\XMCLib\inc\xmc_can.h ****  * 
  18:D:\dholler\Dokumente\uni\bus\xmc\usbCanNode\Libraries\XMCLib\inc\xmc_can.h ****  * Redistributions in binary form must reproduce the above copyright notice, this list of condition
  19:D:\dholler\Dokumente\uni\bus\xmc\usbCanNode\Libraries\XMCLib\inc\xmc_can.h ****  * disclaimer in the documentation and/or other materials provided with the distribution.          
  20:D:\dholler\Dokumente\uni\bus\xmc\usbCanNode\Libraries\XMCLib\inc\xmc_can.h ****  * 
  21:D:\dholler\Dokumente\uni\bus\xmc\usbCanNode\Libraries\XMCLib\inc\xmc_can.h ****  * Neither the name of the copyright holders nor the names of its contributors may be used to endor
  22:D:\dholler\Dokumente\uni\bus\xmc\usbCanNode\Libraries\XMCLib\inc\xmc_can.h ****  * products derived from this software without specific prior written permission.                  
  23:D:\dholler\Dokumente\uni\bus\xmc\usbCanNode\Libraries\XMCLib\inc\xmc_can.h ****  *                                                                              
  24:D:\dholler\Dokumente\uni\bus\xmc\usbCanNode\Libraries\XMCLib\inc\xmc_can.h ****  * THIS SOFTWARE IS PROVIDED BY THE COPYRIGHT HOLDERS AND CONTRIBUTORS "AS IS" AND ANY EXPRESS OR I
  25:D:\dholler\Dokumente\uni\bus\xmc\usbCanNode\Libraries\XMCLib\inc\xmc_can.h ****  * INCLUDING, BUT NOT LIMITED TO, THE IMPLIED WARRANTIES OF MERCHANTABILITY AND FITNESS FOR A PARTI
  26:D:\dholler\Dokumente\uni\bus\xmc\usbCanNode\Libraries\XMCLib\inc\xmc_can.h ****  * DISCLAIMED. IN NO EVENT SHALL THE COPYRIGHT HOLDER OR CONTRIBUTORS BE LIABLE  FOR ANY DIRECT, IN
  27:D:\dholler\Dokumente\uni\bus\xmc\usbCanNode\Libraries\XMCLib\inc\xmc_can.h ****  * SPECIAL, EXEMPLARY, OR CONSEQUENTIAL DAMAGES (INCLUDING, BUT NOT LIMITED TO, PROCUREMENT OF SUBS
  28:D:\dholler\Dokumente\uni\bus\xmc\usbCanNode\Libraries\XMCLib\inc\xmc_can.h ****  * SERVICES; LOSS OF USE, DATA, OR PROFITS; OR BUSINESS INTERRUPTION) HOWEVER CAUSED AND ON ANY THE
  29:D:\dholler\Dokumente\uni\bus\xmc\usbCanNode\Libraries\XMCLib\inc\xmc_can.h ****  * WHETHER IN CONTRACT, STRICT LIABILITY,OR TORT (INCLUDING NEGLIGENCE OR OTHERWISE) ARISING IN ANY
  30:D:\dholler\Dokumente\uni\bus\xmc\usbCanNode\Libraries\XMCLib\inc\xmc_can.h ****  * OF THIS SOFTWARE, EVEN IF ADVISED OF THE POSSIBILITY OF SUCH DAMAGE.                            
  31:D:\dholler\Dokumente\uni\bus\xmc\usbCanNode\Libraries\XMCLib\inc\xmc_can.h ****  *                                                                              
  32:D:\dholler\Dokumente\uni\bus\xmc\usbCanNode\Libraries\XMCLib\inc\xmc_can.h ****  * To improve the quality of the software, users are encouraged to share modifications, enhancement
  33:D:\dholler\Dokumente\uni\bus\xmc\usbCanNode\Libraries\XMCLib\inc\xmc_can.h ****  * Infineon Technologies AG dave@infineon.com).                                                    
  34:D:\dholler\Dokumente\uni\bus\xmc\usbCanNode\Libraries\XMCLib\inc\xmc_can.h ****  **************************************************************************************************
  35:D:\dholler\Dokumente\uni\bus\xmc\usbCanNode\Libraries\XMCLib\inc\xmc_can.h ****  *
  36:D:\dholler\Dokumente\uni\bus\xmc\usbCanNode\Libraries\XMCLib\inc\xmc_can.h ****  * Change History
  37:D:\dholler\Dokumente\uni\bus\xmc\usbCanNode\Libraries\XMCLib\inc\xmc_can.h ****  * --------------
  38:D:\dholler\Dokumente\uni\bus\xmc\usbCanNode\Libraries\XMCLib\inc\xmc_can.h ****  *
  39:D:\dholler\Dokumente\uni\bus\xmc\usbCanNode\Libraries\XMCLib\inc\xmc_can.h ****  * 2015-02-20:
  40:D:\dholler\Dokumente\uni\bus\xmc\usbCanNode\Libraries\XMCLib\inc\xmc_can.h ****  *     - Initial <br>
  41:D:\dholler\Dokumente\uni\bus\xmc\usbCanNode\Libraries\XMCLib\inc\xmc_can.h ****  *     - Documentation improved <br>
  42:D:\dholler\Dokumente\uni\bus\xmc\usbCanNode\Libraries\XMCLib\inc\xmc_can.h ****  *
  43:D:\dholler\Dokumente\uni\bus\xmc\usbCanNode\Libraries\XMCLib\inc\xmc_can.h ****  * 2015-05-20:
  44:D:\dholler\Dokumente\uni\bus\xmc\usbCanNode\Libraries\XMCLib\inc\xmc_can.h ****  *     - New elements have added in XMC_CAN_MO_t data structure <br>
  45:D:\dholler\Dokumente\uni\bus\xmc\usbCanNode\Libraries\XMCLib\inc\xmc_can.h ****  *     - XMC_CAN_MO_Config() signature has changed <br>
  46:D:\dholler\Dokumente\uni\bus\xmc\usbCanNode\Libraries\XMCLib\inc\xmc_can.h ****  *     - XMC_CAN_STATUS_t enum structure has updated. <br>
  47:D:\dholler\Dokumente\uni\bus\xmc\usbCanNode\Libraries\XMCLib\inc\xmc_can.h ****  *
  48:D:\dholler\Dokumente\uni\bus\xmc\usbCanNode\Libraries\XMCLib\inc\xmc_can.h ****  * 2015-06-20:
  49:D:\dholler\Dokumente\uni\bus\xmc\usbCanNode\Libraries\XMCLib\inc\xmc_can.h ****  *     - New APIs added: XMC_CAN_NODE_ClearStatus(),XMC_CAN_MO_ReceiveData(), XMC_CAN_GATEWAY_InitD
  50:D:\dholler\Dokumente\uni\bus\xmc\usbCanNode\Libraries\XMCLib\inc\xmc_can.h ****  *     - Removed version macros and declaration of GetDriverVersion API
  51:D:\dholler\Dokumente\uni\bus\xmc\usbCanNode\Libraries\XMCLib\inc\xmc_can.h ****  *      
  52:D:\dholler\Dokumente\uni\bus\xmc\usbCanNode\Libraries\XMCLib\inc\xmc_can.h ****  * 2015-07-09:
  53:D:\dholler\Dokumente\uni\bus\xmc\usbCanNode\Libraries\XMCLib\inc\xmc_can.h ****  *     - New API added: XMC_CAN_NODE_Enable. <br>
  54:D:\dholler\Dokumente\uni\bus\xmc\usbCanNode\Libraries\XMCLib\inc\xmc_can.h ****  *
  55:D:\dholler\Dokumente\uni\bus\xmc\usbCanNode\Libraries\XMCLib\inc\xmc_can.h ****  * 2015-09-01:
  56:D:\dholler\Dokumente\uni\bus\xmc\usbCanNode\Libraries\XMCLib\inc\xmc_can.h ****  *     - Removed fCANB clock support <br>
  57:D:\dholler\Dokumente\uni\bus\xmc\usbCanNode\Libraries\XMCLib\inc\xmc_can.h ****  *
  58:D:\dholler\Dokumente\uni\bus\xmc\usbCanNode\Libraries\XMCLib\inc\xmc_can.h ****  * 2015-09-15:
  59:D:\dholler\Dokumente\uni\bus\xmc\usbCanNode\Libraries\XMCLib\inc\xmc_can.h ****  *     - Added "xmc_can_map.h" include <br>
  60:D:\dholler\Dokumente\uni\bus\xmc\usbCanNode\Libraries\XMCLib\inc\xmc_can.h ****  * <b>Details of use for node configuration related APIs</b><br>
  61:D:\dholler\Dokumente\uni\bus\xmc\usbCanNode\Libraries\XMCLib\inc\xmc_can.h ****  * Please use the XMC_CAN_NODE_SetInitBit() and XMC_CAN_NODE_EnableConfigurationChange() before cal
  62:D:\dholler\Dokumente\uni\bus\xmc\usbCanNode\Libraries\XMCLib\inc\xmc_can.h ****  * related APIs.
  63:D:\dholler\Dokumente\uni\bus\xmc\usbCanNode\Libraries\XMCLib\inc\xmc_can.h ****  * XMC_CAN_NODE_DisableConfigurationChange() and  XMC_CAN_NODE_ResetInitBit() can be called for dis
  64:D:\dholler\Dokumente\uni\bus\xmc\usbCanNode\Libraries\XMCLib\inc\xmc_can.h ****  * change and enable the node for communication afterwards.
  65:D:\dholler\Dokumente\uni\bus\xmc\usbCanNode\Libraries\XMCLib\inc\xmc_can.h ****  * Do not use this when configuring the nominal bit time with XMC_CAN_NODE_NominalBitTimeConfigure(
  66:D:\dholler\Dokumente\uni\bus\xmc\usbCanNode\Libraries\XMCLib\inc\xmc_can.h ****  * Enable/Disable node configuration change is taken in account.
  67:D:\dholler\Dokumente\uni\bus\xmc\usbCanNode\Libraries\XMCLib\inc\xmc_can.h ****  *
  68:D:\dholler\Dokumente\uni\bus\xmc\usbCanNode\Libraries\XMCLib\inc\xmc_can.h ****  * <b>Example Usage:</b>
  69:D:\dholler\Dokumente\uni\bus\xmc\usbCanNode\Libraries\XMCLib\inc\xmc_can.h ****  * @code
  70:D:\dholler\Dokumente\uni\bus\xmc\usbCanNode\Libraries\XMCLib\inc\xmc_can.h ****  * //disabling the Node
  71:D:\dholler\Dokumente\uni\bus\xmc\usbCanNode\Libraries\XMCLib\inc\xmc_can.h ****  * XMC_CAN_NODE_SetInitBit(CAN_NODE0)
  72:D:\dholler\Dokumente\uni\bus\xmc\usbCanNode\Libraries\XMCLib\inc\xmc_can.h ****  * //allowing the configuration change
  73:D:\dholler\Dokumente\uni\bus\xmc\usbCanNode\Libraries\XMCLib\inc\xmc_can.h ****  * XMC_CAN_NODE_EnableConfigurationChange(CAN_NODE0)
  74:D:\dholler\Dokumente\uni\bus\xmc\usbCanNode\Libraries\XMCLib\inc\xmc_can.h ****  * //Node configuration
  75:D:\dholler\Dokumente\uni\bus\xmc\usbCanNode\Libraries\XMCLib\inc\xmc_can.h ****  * XMC_CAN_NODE_FrameCounterConfigure(CAN_NODE0,&can_node_frame_counter);
  76:D:\dholler\Dokumente\uni\bus\xmc\usbCanNode\Libraries\XMCLib\inc\xmc_can.h ****  * XMC_CAN_NODE_EnableLoopBack(CAN_NODE0)
  77:D:\dholler\Dokumente\uni\bus\xmc\usbCanNode\Libraries\XMCLib\inc\xmc_can.h ****  * //disable configuration
  78:D:\dholler\Dokumente\uni\bus\xmc\usbCanNode\Libraries\XMCLib\inc\xmc_can.h ****  * XMC_CAN_NODE_DisableConfigurationChange(CAN_NODE0)
  79:D:\dholler\Dokumente\uni\bus\xmc\usbCanNode\Libraries\XMCLib\inc\xmc_can.h ****  * //Enabling node for communication
  80:D:\dholler\Dokumente\uni\bus\xmc\usbCanNode\Libraries\XMCLib\inc\xmc_can.h ****  * XMC_CAN_NODE_ResetInitBit(CAN_NODE0)
  81:D:\dholler\Dokumente\uni\bus\xmc\usbCanNode\Libraries\XMCLib\inc\xmc_can.h ****  * @endcode
  82:D:\dholler\Dokumente\uni\bus\xmc\usbCanNode\Libraries\XMCLib\inc\xmc_can.h ****  *
  83:D:\dholler\Dokumente\uni\bus\xmc\usbCanNode\Libraries\XMCLib\inc\xmc_can.h ****  * @endcond
  84:D:\dholler\Dokumente\uni\bus\xmc\usbCanNode\Libraries\XMCLib\inc\xmc_can.h ****  *
  85:D:\dholler\Dokumente\uni\bus\xmc\usbCanNode\Libraries\XMCLib\inc\xmc_can.h ****  */
  86:D:\dholler\Dokumente\uni\bus\xmc\usbCanNode\Libraries\XMCLib\inc\xmc_can.h **** 
  87:D:\dholler\Dokumente\uni\bus\xmc\usbCanNode\Libraries\XMCLib\inc\xmc_can.h **** #ifndef XMC_CAN_H
  88:D:\dholler\Dokumente\uni\bus\xmc\usbCanNode\Libraries\XMCLib\inc\xmc_can.h **** #define XMC_CAN_H
  89:D:\dholler\Dokumente\uni\bus\xmc\usbCanNode\Libraries\XMCLib\inc\xmc_can.h **** 
  90:D:\dholler\Dokumente\uni\bus\xmc\usbCanNode\Libraries\XMCLib\inc\xmc_can.h **** /**************************************************************************************************
  91:D:\dholler\Dokumente\uni\bus\xmc\usbCanNode\Libraries\XMCLib\inc\xmc_can.h ****  * HEADER FILES
  92:D:\dholler\Dokumente\uni\bus\xmc\usbCanNode\Libraries\XMCLib\inc\xmc_can.h ****  **************************************************************************************************
  93:D:\dholler\Dokumente\uni\bus\xmc\usbCanNode\Libraries\XMCLib\inc\xmc_can.h **** #include "xmc_common.h"
  94:D:\dholler\Dokumente\uni\bus\xmc\usbCanNode\Libraries\XMCLib\inc\xmc_can.h **** 
  95:D:\dholler\Dokumente\uni\bus\xmc\usbCanNode\Libraries\XMCLib\inc\xmc_can.h **** #if defined(CAN)
  96:D:\dholler\Dokumente\uni\bus\xmc\usbCanNode\Libraries\XMCLib\inc\xmc_can.h **** 
  97:D:\dholler\Dokumente\uni\bus\xmc\usbCanNode\Libraries\XMCLib\inc\xmc_can.h **** #include "xmc_scu.h"
  98:D:\dholler\Dokumente\uni\bus\xmc\usbCanNode\Libraries\XMCLib\inc\xmc_can.h **** #include "xmc_can_map.h"
  99:D:\dholler\Dokumente\uni\bus\xmc\usbCanNode\Libraries\XMCLib\inc\xmc_can.h **** #include <string.h>
 100:D:\dholler\Dokumente\uni\bus\xmc\usbCanNode\Libraries\XMCLib\inc\xmc_can.h **** 
 101:D:\dholler\Dokumente\uni\bus\xmc\usbCanNode\Libraries\XMCLib\inc\xmc_can.h **** /**
 102:D:\dholler\Dokumente\uni\bus\xmc\usbCanNode\Libraries\XMCLib\inc\xmc_can.h ****  * @addtogroup XMClib XMC Peripheral Library
 103:D:\dholler\Dokumente\uni\bus\xmc\usbCanNode\Libraries\XMCLib\inc\xmc_can.h ****  * @{
 104:D:\dholler\Dokumente\uni\bus\xmc\usbCanNode\Libraries\XMCLib\inc\xmc_can.h ****  */
 105:D:\dholler\Dokumente\uni\bus\xmc\usbCanNode\Libraries\XMCLib\inc\xmc_can.h **** 
 106:D:\dholler\Dokumente\uni\bus\xmc\usbCanNode\Libraries\XMCLib\inc\xmc_can.h **** /**
 107:D:\dholler\Dokumente\uni\bus\xmc\usbCanNode\Libraries\XMCLib\inc\xmc_can.h ****  * @addtogroup CAN
 108:D:\dholler\Dokumente\uni\bus\xmc\usbCanNode\Libraries\XMCLib\inc\xmc_can.h ****  * @brief Controller Area Network Controller (CAN) driver for the XMC microcontroller family.
 109:D:\dholler\Dokumente\uni\bus\xmc\usbCanNode\Libraries\XMCLib\inc\xmc_can.h ****  *
 110:D:\dholler\Dokumente\uni\bus\xmc\usbCanNode\Libraries\XMCLib\inc\xmc_can.h ****  * CAN driver provides transfer of CAN frames in accordance with CAN specificetion V2.0 B (active).
 111:D:\dholler\Dokumente\uni\bus\xmc\usbCanNode\Libraries\XMCLib\inc\xmc_can.h ****  * can receive and transmit standard frames with 11-bit identifiers as well as extended frames with
 112:D:\dholler\Dokumente\uni\bus\xmc\usbCanNode\Libraries\XMCLib\inc\xmc_can.h ****  * All CAN nodes share a common set of message objects. Each message object can be individually all
 113:D:\dholler\Dokumente\uni\bus\xmc\usbCanNode\Libraries\XMCLib\inc\xmc_can.h ****  * CAN nodes. 
 114:D:\dholler\Dokumente\uni\bus\xmc\usbCanNode\Libraries\XMCLib\inc\xmc_can.h ****  * Besides serving as a storage container for incoming and outgoing frames, message objects can be 
 115:D:\dholler\Dokumente\uni\bus\xmc\usbCanNode\Libraries\XMCLib\inc\xmc_can.h ****  * gateways between 
 116:D:\dholler\Dokumente\uni\bus\xmc\usbCanNode\Libraries\XMCLib\inc\xmc_can.h ****  * the CAN nodes or to setup a FIFO buffer. The CAN module provides Analyzer mode,Loop-back mode an
 117:D:\dholler\Dokumente\uni\bus\xmc\usbCanNode\Libraries\XMCLib\inc\xmc_can.h ****  * node analysis.
 118:D:\dholler\Dokumente\uni\bus\xmc\usbCanNode\Libraries\XMCLib\inc\xmc_can.h ****  * 
 119:D:\dholler\Dokumente\uni\bus\xmc\usbCanNode\Libraries\XMCLib\inc\xmc_can.h ****  * The driver is divided into five sections:
 120:D:\dholler\Dokumente\uni\bus\xmc\usbCanNode\Libraries\XMCLib\inc\xmc_can.h ****  * \par CAN Global features:
 121:D:\dholler\Dokumente\uni\bus\xmc\usbCanNode\Libraries\XMCLib\inc\xmc_can.h ****  * -# Allows to configure module frequency using function XMC_CAN_Init().
 122:D:\dholler\Dokumente\uni\bus\xmc\usbCanNode\Libraries\XMCLib\inc\xmc_can.h ****  * -# Allows to configure Module interrupt using configuration structure XMC_CAN_NODE_INTERRUPT_TRI
 123:D:\dholler\Dokumente\uni\bus\xmc\usbCanNode\Libraries\XMCLib\inc\xmc_can.h ****  *    XMC_CAN_EventTrigger().
 124:D:\dholler\Dokumente\uni\bus\xmc\usbCanNode\Libraries\XMCLib\inc\xmc_can.h ****  * 
 125:D:\dholler\Dokumente\uni\bus\xmc\usbCanNode\Libraries\XMCLib\inc\xmc_can.h ****  * \par CAN_NODE features:
 126:D:\dholler\Dokumente\uni\bus\xmc\usbCanNode\Libraries\XMCLib\inc\xmc_can.h ****  * -# Allows to set baud rate by configuration structure XMC_CAN_NODE_NOMINAL_BIT_TIME_CONFIG_t and
 127:D:\dholler\Dokumente\uni\bus\xmc\usbCanNode\Libraries\XMCLib\inc\xmc_can.h ****  *    function XMC_CAN_NODE_NominalBitTimeConfigure().
 128:D:\dholler\Dokumente\uni\bus\xmc\usbCanNode\Libraries\XMCLib\inc\xmc_can.h ****  * -# Allows to configure loop-back mode using fuction XMC_CAN_NODE_EnableLoopBack().
 129:D:\dholler\Dokumente\uni\bus\xmc\usbCanNode\Libraries\XMCLib\inc\xmc_can.h ****  * -# Allows to configure CAN Node analyzer using function XMC_CAN_NODE_SetAnalyzerMode().
 130:D:\dholler\Dokumente\uni\bus\xmc\usbCanNode\Libraries\XMCLib\inc\xmc_can.h ****  * -# Allows CAN node events enable/ disable by enum structure XMC_CAN_NODE_EVENT_t and functions X
 131:D:\dholler\Dokumente\uni\bus\xmc\usbCanNode\Libraries\XMCLib\inc\xmc_can.h ****  *    and XMC_CAN_NODE_DisableEvent().
 132:D:\dholler\Dokumente\uni\bus\xmc\usbCanNode\Libraries\XMCLib\inc\xmc_can.h ****  * -# Provides bit timming analysis, configuration structure XMC_CAN_NODE_FRAME_COUNTER_t and funct
 133:D:\dholler\Dokumente\uni\bus\xmc\usbCanNode\Libraries\XMCLib\inc\xmc_can.h ****  *    XMC_CAN_NODE_FrameCounterConfigure(). 
 134:D:\dholler\Dokumente\uni\bus\xmc\usbCanNode\Libraries\XMCLib\inc\xmc_can.h ****  *
 135:D:\dholler\Dokumente\uni\bus\xmc\usbCanNode\Libraries\XMCLib\inc\xmc_can.h ****  * \par CAN_MO features:
 136:D:\dholler\Dokumente\uni\bus\xmc\usbCanNode\Libraries\XMCLib\inc\xmc_can.h ****  * -# Allows message object initialization by configuration structure XMC_CAN_MO_t and function XMC
 137:D:\dholler\Dokumente\uni\bus\xmc\usbCanNode\Libraries\XMCLib\inc\xmc_can.h ****  * -# Allows transfer of message objects using functions XMC_CAN_MO_Transmit() and XMC_CAN_MO_Recei
 138:D:\dholler\Dokumente\uni\bus\xmc\usbCanNode\Libraries\XMCLib\inc\xmc_can.h ****  * -# Allows to configure Single Data Transfer and Single Transmit Trial using functions 
 139:D:\dholler\Dokumente\uni\bus\xmc\usbCanNode\Libraries\XMCLib\inc\xmc_can.h ****  * XMC_CAN_MO_EnableSingleTransmitTrial() and XMC_CAN_MO_EnableSingleTransmitTrial().
 140:D:\dholler\Dokumente\uni\bus\xmc\usbCanNode\Libraries\XMCLib\inc\xmc_can.h ****  * -# Allows to configure MO events using function XMC_CAN_MO_EnableEvent(). 
 141:D:\dholler\Dokumente\uni\bus\xmc\usbCanNode\Libraries\XMCLib\inc\xmc_can.h ****  *
 142:D:\dholler\Dokumente\uni\bus\xmc\usbCanNode\Libraries\XMCLib\inc\xmc_can.h ****  * \par CAN_FIFO features:
 143:D:\dholler\Dokumente\uni\bus\xmc\usbCanNode\Libraries\XMCLib\inc\xmc_can.h ****  * -# Allows message object FIFO structure by configuration structure XMC_CAN_FIFO_CONFIG_t and fun
 144:D:\dholler\Dokumente\uni\bus\xmc\usbCanNode\Libraries\XMCLib\inc\xmc_can.h ****  * XMC_CAN_TXFIFO_ConfigMOBaseObject() , XMC_CAN_RXFIFO_ConfigMOBaseObject() and XMC_CAN_TXFIFO_Tra
 145:D:\dholler\Dokumente\uni\bus\xmc\usbCanNode\Libraries\XMCLib\inc\xmc_can.h ****  *
 146:D:\dholler\Dokumente\uni\bus\xmc\usbCanNode\Libraries\XMCLib\inc\xmc_can.h ****  * \par CAN_GATEWAY features:
 147:D:\dholler\Dokumente\uni\bus\xmc\usbCanNode\Libraries\XMCLib\inc\xmc_can.h ****  * -# Provides Gateway mode, configuration structure XMC_CAN_GATEWAY_CONFIG_t and function XMC_CAN_
 148:D:\dholler\Dokumente\uni\bus\xmc\usbCanNode\Libraries\XMCLib\inc\xmc_can.h ****  *
 149:D:\dholler\Dokumente\uni\bus\xmc\usbCanNode\Libraries\XMCLib\inc\xmc_can.h ****  * @{
 150:D:\dholler\Dokumente\uni\bus\xmc\usbCanNode\Libraries\XMCLib\inc\xmc_can.h ****  */
 151:D:\dholler\Dokumente\uni\bus\xmc\usbCanNode\Libraries\XMCLib\inc\xmc_can.h **** 
 152:D:\dholler\Dokumente\uni\bus\xmc\usbCanNode\Libraries\XMCLib\inc\xmc_can.h **** /**************************************************************************************************
 153:D:\dholler\Dokumente\uni\bus\xmc\usbCanNode\Libraries\XMCLib\inc\xmc_can.h ****  * MACROS
 154:D:\dholler\Dokumente\uni\bus\xmc\usbCanNode\Libraries\XMCLib\inc\xmc_can.h ****  **************************************************************************************************
 155:D:\dholler\Dokumente\uni\bus\xmc\usbCanNode\Libraries\XMCLib\inc\xmc_can.h **** #define XMC_CAN_MO_MOAR_STDID_Pos (18U)		/**< Standard Identifier bitposition */
 156:D:\dholler\Dokumente\uni\bus\xmc\usbCanNode\Libraries\XMCLib\inc\xmc_can.h **** 
 157:D:\dholler\Dokumente\uni\bus\xmc\usbCanNode\Libraries\XMCLib\inc\xmc_can.h **** #define XMC_CAN_MO_MOAR_STDID_Msk ((0x000007FFUL) << XMC_CAN_MO_MOAR_STDID_Pos) /**< Standard Ident
 158:D:\dholler\Dokumente\uni\bus\xmc\usbCanNode\Libraries\XMCLib\inc\xmc_can.h **** 
 159:D:\dholler\Dokumente\uni\bus\xmc\usbCanNode\Libraries\XMCLib\inc\xmc_can.h **** #define CAN_NODE_NIPR_Msk         (0x7UL)	/**< Node event mask */
 160:D:\dholler\Dokumente\uni\bus\xmc\usbCanNode\Libraries\XMCLib\inc\xmc_can.h **** 
 161:D:\dholler\Dokumente\uni\bus\xmc\usbCanNode\Libraries\XMCLib\inc\xmc_can.h **** #define CAN_MO_MOIPR_Msk          (0x7U)	/**< Message Object event mask */
 162:D:\dholler\Dokumente\uni\bus\xmc\usbCanNode\Libraries\XMCLib\inc\xmc_can.h **** 
 163:D:\dholler\Dokumente\uni\bus\xmc\usbCanNode\Libraries\XMCLib\inc\xmc_can.h **** /**************************************************************************************************
 164:D:\dholler\Dokumente\uni\bus\xmc\usbCanNode\Libraries\XMCLib\inc\xmc_can.h ****  * ENUMS
 165:D:\dholler\Dokumente\uni\bus\xmc\usbCanNode\Libraries\XMCLib\inc\xmc_can.h ****  **************************************************************************************************
 166:D:\dholler\Dokumente\uni\bus\xmc\usbCanNode\Libraries\XMCLib\inc\xmc_can.h **** /**
 167:D:\dholler\Dokumente\uni\bus\xmc\usbCanNode\Libraries\XMCLib\inc\xmc_can.h ****  *  Defines the status of CAN, to verify the CAN related API calls. Use type \a XMC_CAN_STATUS_t fo
 168:D:\dholler\Dokumente\uni\bus\xmc\usbCanNode\Libraries\XMCLib\inc\xmc_can.h **** */
 169:D:\dholler\Dokumente\uni\bus\xmc\usbCanNode\Libraries\XMCLib\inc\xmc_can.h **** typedef enum XMC_CAN_STATUS
 170:D:\dholler\Dokumente\uni\bus\xmc\usbCanNode\Libraries\XMCLib\inc\xmc_can.h **** {
 171:D:\dholler\Dokumente\uni\bus\xmc\usbCanNode\Libraries\XMCLib\inc\xmc_can.h ****   XMC_CAN_STATUS_SUCCESS,           /**< Driver accepted application request*/
 172:D:\dholler\Dokumente\uni\bus\xmc\usbCanNode\Libraries\XMCLib\inc\xmc_can.h ****   XMC_CAN_STATUS_ERROR,             /**< Returned when unknown error occurred */
 173:D:\dholler\Dokumente\uni\bus\xmc\usbCanNode\Libraries\XMCLib\inc\xmc_can.h ****   XMC_CAN_STATUS_BUSY,              /**< Driver is busy and can not handle request*/
 174:D:\dholler\Dokumente\uni\bus\xmc\usbCanNode\Libraries\XMCLib\inc\xmc_can.h ****   XMC_CAN_STATUS_MO_NOT_ACCEPTABLE, /**< Message object type not allowed*/
 175:D:\dholler\Dokumente\uni\bus\xmc\usbCanNode\Libraries\XMCLib\inc\xmc_can.h ****   XMC_CAN_STATUS_MO_DISABLED       /**< Returned if Message object is disabled */
 176:D:\dholler\Dokumente\uni\bus\xmc\usbCanNode\Libraries\XMCLib\inc\xmc_can.h **** } XMC_CAN_STATUS_t;
 177:D:\dholler\Dokumente\uni\bus\xmc\usbCanNode\Libraries\XMCLib\inc\xmc_can.h **** 
 178:D:\dholler\Dokumente\uni\bus\xmc\usbCanNode\Libraries\XMCLib\inc\xmc_can.h **** /**
 179:D:\dholler\Dokumente\uni\bus\xmc\usbCanNode\Libraries\XMCLib\inc\xmc_can.h **** * Defines CAN module Panel Commands . Use type \a XMC_CAN_PANCMD_t for this enum.
 180:D:\dholler\Dokumente\uni\bus\xmc\usbCanNode\Libraries\XMCLib\inc\xmc_can.h **** */
 181:D:\dholler\Dokumente\uni\bus\xmc\usbCanNode\Libraries\XMCLib\inc\xmc_can.h **** typedef enum XMC_CAN_PANCMD
 182:D:\dholler\Dokumente\uni\bus\xmc\usbCanNode\Libraries\XMCLib\inc\xmc_can.h **** {
 183:D:\dholler\Dokumente\uni\bus\xmc\usbCanNode\Libraries\XMCLib\inc\xmc_can.h ****   XMC_CAN_PANCMD_INIT_LIST = 1U,              /**< Command to initialize a list */
 184:D:\dholler\Dokumente\uni\bus\xmc\usbCanNode\Libraries\XMCLib\inc\xmc_can.h ****   XMC_CAN_PANCMD_STATIC_ALLOCATE = 2U,        /**< Command to activate static allocation */
 185:D:\dholler\Dokumente\uni\bus\xmc\usbCanNode\Libraries\XMCLib\inc\xmc_can.h ****   XMC_CAN_PANCMD_DYNAMIC_ALLOCATE = 3U,       /**< Command to activate dynamic allocation */
 186:D:\dholler\Dokumente\uni\bus\xmc\usbCanNode\Libraries\XMCLib\inc\xmc_can.h **** 
 187:D:\dholler\Dokumente\uni\bus\xmc\usbCanNode\Libraries\XMCLib\inc\xmc_can.h ****   XMC_CAN_PANCMD_STATIC_INSERT_BEFORE = 4U,	  /**< Remove a message object from the list and insert
 188:D:\dholler\Dokumente\uni\bus\xmc\usbCanNode\Libraries\XMCLib\inc\xmc_can.h ****   XMC_CAN_PANCMD_DYNAMIC_INSERT_BEFORE = 5U,  /**< Command to activate dynamic allocation */
 189:D:\dholler\Dokumente\uni\bus\xmc\usbCanNode\Libraries\XMCLib\inc\xmc_can.h ****   XMC_CAN_PANCMD_STATIC_INSERT_BEHIND = 6U,   /**< Command to activate dynamic allocation */
 190:D:\dholler\Dokumente\uni\bus\xmc\usbCanNode\Libraries\XMCLib\inc\xmc_can.h ****   XMC_CAN_PANCMD_DYNAMIC_INSERT_BEHIND = 7U   /**< Command to activate dynamic allocation */
 191:D:\dholler\Dokumente\uni\bus\xmc\usbCanNode\Libraries\XMCLib\inc\xmc_can.h **** } XMC_CAN_PANCMD_t;
 192:D:\dholler\Dokumente\uni\bus\xmc\usbCanNode\Libraries\XMCLib\inc\xmc_can.h **** 
 193:D:\dholler\Dokumente\uni\bus\xmc\usbCanNode\Libraries\XMCLib\inc\xmc_can.h **** /**
 194:D:\dholler\Dokumente\uni\bus\xmc\usbCanNode\Libraries\XMCLib\inc\xmc_can.h **** * Defines loop Back Mode, to enable/disable an in-system test of the MultiCAN module .
 195:D:\dholler\Dokumente\uni\bus\xmc\usbCanNode\Libraries\XMCLib\inc\xmc_can.h **** * Use type \a XMC_CAN_LOOKBACKMODE_t for this enum.
 196:D:\dholler\Dokumente\uni\bus\xmc\usbCanNode\Libraries\XMCLib\inc\xmc_can.h **** */
 197:D:\dholler\Dokumente\uni\bus\xmc\usbCanNode\Libraries\XMCLib\inc\xmc_can.h **** typedef enum XMC_CAN_LOOKBACKMODE
 198:D:\dholler\Dokumente\uni\bus\xmc\usbCanNode\Libraries\XMCLib\inc\xmc_can.h **** {
 199:D:\dholler\Dokumente\uni\bus\xmc\usbCanNode\Libraries\XMCLib\inc\xmc_can.h ****   XMC_CAN_LOOKBACKMODE_ENABLED,   /**< Each CAN node can be connected to the internal CAN bus  */
 200:D:\dholler\Dokumente\uni\bus\xmc\usbCanNode\Libraries\XMCLib\inc\xmc_can.h ****   XMC_CAN_LOOKBACKMODE_DISABLED   /**< Each CAN node can be connected to the external CAN bus */
 201:D:\dholler\Dokumente\uni\bus\xmc\usbCanNode\Libraries\XMCLib\inc\xmc_can.h **** } XMC_CAN_LOOKBACKMODE_t;
 202:D:\dholler\Dokumente\uni\bus\xmc\usbCanNode\Libraries\XMCLib\inc\xmc_can.h **** 
 203:D:\dholler\Dokumente\uni\bus\xmc\usbCanNode\Libraries\XMCLib\inc\xmc_can.h **** /**
 204:D:\dholler\Dokumente\uni\bus\xmc\usbCanNode\Libraries\XMCLib\inc\xmc_can.h ****  * Defines Message Object direction. Use type \a XMC_CAN_MO_TYPE_t for this enum.
 205:D:\dholler\Dokumente\uni\bus\xmc\usbCanNode\Libraries\XMCLib\inc\xmc_can.h ****  */
 206:D:\dholler\Dokumente\uni\bus\xmc\usbCanNode\Libraries\XMCLib\inc\xmc_can.h **** typedef enum XMC_CAN_MO_TYPE
 207:D:\dholler\Dokumente\uni\bus\xmc\usbCanNode\Libraries\XMCLib\inc\xmc_can.h **** {
 208:D:\dholler\Dokumente\uni\bus\xmc\usbCanNode\Libraries\XMCLib\inc\xmc_can.h ****   XMC_CAN_MO_TYPE_RECMSGOBJ,   /**< Receive Message Object selected */
 209:D:\dholler\Dokumente\uni\bus\xmc\usbCanNode\Libraries\XMCLib\inc\xmc_can.h ****   XMC_CAN_MO_TYPE_TRANSMSGOBJ  /**< Transmit Message Object selected */
 210:D:\dholler\Dokumente\uni\bus\xmc\usbCanNode\Libraries\XMCLib\inc\xmc_can.h **** } XMC_CAN_MO_TYPE_t;
 211:D:\dholler\Dokumente\uni\bus\xmc\usbCanNode\Libraries\XMCLib\inc\xmc_can.h **** 
 212:D:\dholler\Dokumente\uni\bus\xmc\usbCanNode\Libraries\XMCLib\inc\xmc_can.h **** /**
 213:D:\dholler\Dokumente\uni\bus\xmc\usbCanNode\Libraries\XMCLib\inc\xmc_can.h ****  * Defines Data frame types. Use type \a XMC_CAN_FRAME_TYPE_t for this enum.
 214:D:\dholler\Dokumente\uni\bus\xmc\usbCanNode\Libraries\XMCLib\inc\xmc_can.h ****  */
 215:D:\dholler\Dokumente\uni\bus\xmc\usbCanNode\Libraries\XMCLib\inc\xmc_can.h **** typedef enum XMC_CAN_FRAME_TYPE
 216:D:\dholler\Dokumente\uni\bus\xmc\usbCanNode\Libraries\XMCLib\inc\xmc_can.h **** {
 217:D:\dholler\Dokumente\uni\bus\xmc\usbCanNode\Libraries\XMCLib\inc\xmc_can.h ****   XMC_CAN_FRAME_TYPE_STANDARD_11BITS, /**< Standard type identifier*/
 218:D:\dholler\Dokumente\uni\bus\xmc\usbCanNode\Libraries\XMCLib\inc\xmc_can.h ****   XMC_CAN_FRAME_TYPE_EXTENDED_29BITS  /**< Extended type identifier*/
 219:D:\dholler\Dokumente\uni\bus\xmc\usbCanNode\Libraries\XMCLib\inc\xmc_can.h **** } XMC_CAN_FRAME_TYPE_t;
 220:D:\dholler\Dokumente\uni\bus\xmc\usbCanNode\Libraries\XMCLib\inc\xmc_can.h **** 
 221:D:\dholler\Dokumente\uni\bus\xmc\usbCanNode\Libraries\XMCLib\inc\xmc_can.h **** 
 222:D:\dholler\Dokumente\uni\bus\xmc\usbCanNode\Libraries\XMCLib\inc\xmc_can.h **** /**
 223:D:\dholler\Dokumente\uni\bus\xmc\usbCanNode\Libraries\XMCLib\inc\xmc_can.h ****  * Defines arbitration mode for transmit acceptance filtering. Use type \a XMC_CAN_ARBITRATION_MODE
 224:D:\dholler\Dokumente\uni\bus\xmc\usbCanNode\Libraries\XMCLib\inc\xmc_can.h ****  */
 225:D:\dholler\Dokumente\uni\bus\xmc\usbCanNode\Libraries\XMCLib\inc\xmc_can.h **** typedef enum XMC_CAN_ARBITRATION_MODE
 226:D:\dholler\Dokumente\uni\bus\xmc\usbCanNode\Libraries\XMCLib\inc\xmc_can.h **** {
 227:D:\dholler\Dokumente\uni\bus\xmc\usbCanNode\Libraries\XMCLib\inc\xmc_can.h ****   XMC_CAN_ARBITRATION_MODE_ORDER_BASED_PRIO_1 = 1U,   /**< Transmit acceptance based in the order(p
 228:D:\dholler\Dokumente\uni\bus\xmc\usbCanNode\Libraries\XMCLib\inc\xmc_can.h ****   XMC_CAN_ARBITRATION_MODE_IDE_DIR_BASED_PRIO_2 = 2U, /**< Transmit acceptance filtering is based o
 229:D:\dholler\Dokumente\uni\bus\xmc\usbCanNode\Libraries\XMCLib\inc\xmc_can.h ****   XMC_CAN_ARBITRATION_MODE_ORDER_BASED_PRIO_3 = 3U    /**< Transmit acceptance based in the order *
 230:D:\dholler\Dokumente\uni\bus\xmc\usbCanNode\Libraries\XMCLib\inc\xmc_can.h **** } XMC_CAN_ARBITRATION_MODE_t;
 231:D:\dholler\Dokumente\uni\bus\xmc\usbCanNode\Libraries\XMCLib\inc\xmc_can.h **** 
 232:D:\dholler\Dokumente\uni\bus\xmc\usbCanNode\Libraries\XMCLib\inc\xmc_can.h **** /**
 233:D:\dholler\Dokumente\uni\bus\xmc\usbCanNode\Libraries\XMCLib\inc\xmc_can.h ****  * Defines the operation mode of the frame counter. Use type \a XMC_CAN_FRAME_COUNT_MODE_t for this
 234:D:\dholler\Dokumente\uni\bus\xmc\usbCanNode\Libraries\XMCLib\inc\xmc_can.h ****  */
 235:D:\dholler\Dokumente\uni\bus\xmc\usbCanNode\Libraries\XMCLib\inc\xmc_can.h **** typedef enum XMC_CAN_FRAME_COUNT_MODE
 236:D:\dholler\Dokumente\uni\bus\xmc\usbCanNode\Libraries\XMCLib\inc\xmc_can.h **** {
 237:D:\dholler\Dokumente\uni\bus\xmc\usbCanNode\Libraries\XMCLib\inc\xmc_can.h ****   XMC_CAN_FRAME_COUNT_MODE = 0U, 			 /**< Frame Count Mode */
 238:D:\dholler\Dokumente\uni\bus\xmc\usbCanNode\Libraries\XMCLib\inc\xmc_can.h ****   XMC_CAN_FRAME_COUNT_MODE_TIME_STAMP = 1U,  /**< The frame counter is incremented with the beginni
 239:D:\dholler\Dokumente\uni\bus\xmc\usbCanNode\Libraries\XMCLib\inc\xmc_can.h ****   XMC_CAN_FRAME_COUNT_MODE_BIT_TIMING = 2U   /**< Used for baud rate detection and analysis of the 
 240:D:\dholler\Dokumente\uni\bus\xmc\usbCanNode\Libraries\XMCLib\inc\xmc_can.h **** } XMC_CAN_FRAME_COUNT_MODE_t;
 241:D:\dholler\Dokumente\uni\bus\xmc\usbCanNode\Libraries\XMCLib\inc\xmc_can.h **** 
 242:D:\dholler\Dokumente\uni\bus\xmc\usbCanNode\Libraries\XMCLib\inc\xmc_can.h **** /**
 243:D:\dholler\Dokumente\uni\bus\xmc\usbCanNode\Libraries\XMCLib\inc\xmc_can.h ****  * Defines the Divider Modes. Use type \a XMC_CAN_DM_t for this enum.
 244:D:\dholler\Dokumente\uni\bus\xmc\usbCanNode\Libraries\XMCLib\inc\xmc_can.h ****  */
 245:D:\dholler\Dokumente\uni\bus\xmc\usbCanNode\Libraries\XMCLib\inc\xmc_can.h **** typedef enum XMC_CAN_DM
 246:D:\dholler\Dokumente\uni\bus\xmc\usbCanNode\Libraries\XMCLib\inc\xmc_can.h **** {
 247:D:\dholler\Dokumente\uni\bus\xmc\usbCanNode\Libraries\XMCLib\inc\xmc_can.h ****   XMC_CAN_DM_NORMAL = 1U,      /**< Normal divider mode */
 248:D:\dholler\Dokumente\uni\bus\xmc\usbCanNode\Libraries\XMCLib\inc\xmc_can.h ****   XMC_CAN_DM_FRACTIONAL = 2U,  /**< Fractional divider mode */
 249:D:\dholler\Dokumente\uni\bus\xmc\usbCanNode\Libraries\XMCLib\inc\xmc_can.h ****   XMC_CAN_DM_OFF = 3U          /**< Divider Mode in off-state*/
 250:D:\dholler\Dokumente\uni\bus\xmc\usbCanNode\Libraries\XMCLib\inc\xmc_can.h **** } XMC_CAN_DM_t;
 251:D:\dholler\Dokumente\uni\bus\xmc\usbCanNode\Libraries\XMCLib\inc\xmc_can.h **** 
 252:D:\dholler\Dokumente\uni\bus\xmc\usbCanNode\Libraries\XMCLib\inc\xmc_can.h **** /**
 253:D:\dholler\Dokumente\uni\bus\xmc\usbCanNode\Libraries\XMCLib\inc\xmc_can.h ****  * Defines mask value for CAN Message Object set status. Use type \a XMC_CAN_MO_SET_STATUS_t for th
 254:D:\dholler\Dokumente\uni\bus\xmc\usbCanNode\Libraries\XMCLib\inc\xmc_can.h ****  */
 255:D:\dholler\Dokumente\uni\bus\xmc\usbCanNode\Libraries\XMCLib\inc\xmc_can.h **** typedef enum XMC_CAN_MO_SET_STATUS
 256:D:\dholler\Dokumente\uni\bus\xmc\usbCanNode\Libraries\XMCLib\inc\xmc_can.h **** {
 257:D:\dholler\Dokumente\uni\bus\xmc\usbCanNode\Libraries\XMCLib\inc\xmc_can.h ****   XMC_CAN_MO_SET_STATUS_RX_PENDING = CAN_MO_MOCTR_SETRXPND_Msk,     /**< Set receive pending */
 258:D:\dholler\Dokumente\uni\bus\xmc\usbCanNode\Libraries\XMCLib\inc\xmc_can.h ****   XMC_CAN_MO_SET_STATUS_TX_PENDING = CAN_MO_MOCTR_SETTXPND_Msk,     /**< Set transmit pending */
 259:D:\dholler\Dokumente\uni\bus\xmc\usbCanNode\Libraries\XMCLib\inc\xmc_can.h ****   XMC_CAN_MO_SET_STATUS_RX_UPDATING = CAN_MO_MOCTR_SETRXUPD_Msk,    /**< Set receive updating */
 260:D:\dholler\Dokumente\uni\bus\xmc\usbCanNode\Libraries\XMCLib\inc\xmc_can.h ****   XMC_CAN_MO_SET_STATUS_NEW_DATA = CAN_MO_MOCTR_SETNEWDAT_Msk,      /**< Set new data */
 261:D:\dholler\Dokumente\uni\bus\xmc\usbCanNode\Libraries\XMCLib\inc\xmc_can.h ****   XMC_CAN_MO_SET_STATUS_MESSAGE_LOST = CAN_MO_MOCTR_SETMSGLST_Msk,  /**< Set message lost */
 262:D:\dholler\Dokumente\uni\bus\xmc\usbCanNode\Libraries\XMCLib\inc\xmc_can.h ****   XMC_CAN_MO_SET_STATUS_MESSAGE_VALID = CAN_MO_MOCTR_SETMSGVAL_Msk, /**< Set message valid */
 263:D:\dholler\Dokumente\uni\bus\xmc\usbCanNode\Libraries\XMCLib\inc\xmc_can.h ****   XMC_CAN_MO_SET_STATUS_RX_TX_SELECTED = CAN_MO_MOCTR_SETRTSEL_Msk, /**< Set transmit/receive selec
 264:D:\dholler\Dokumente\uni\bus\xmc\usbCanNode\Libraries\XMCLib\inc\xmc_can.h ****   XMC_CAN_MO_SET_STATUS_RX_ENABLE = CAN_MO_MOCTR_SETRXEN_Msk,       /**< Set receive enable */
 265:D:\dholler\Dokumente\uni\bus\xmc\usbCanNode\Libraries\XMCLib\inc\xmc_can.h ****   XMC_CAN_MO_SET_STATUS_TX_REQUEST = CAN_MO_MOCTR_SETTXRQ_Msk,      /**< Set transmit request */
 266:D:\dholler\Dokumente\uni\bus\xmc\usbCanNode\Libraries\XMCLib\inc\xmc_can.h ****   XMC_CAN_MO_SET_STATUS_TX_ENABLE0 = CAN_MO_MOCTR_SETTXEN0_Msk,     /**< Set transmit enable 0 */
 267:D:\dholler\Dokumente\uni\bus\xmc\usbCanNode\Libraries\XMCLib\inc\xmc_can.h ****   XMC_CAN_MO_SET_STATUS_TX_ENABLE1 = CAN_MO_MOCTR_SETTXEN1_Msk,     /**< Set transmit enable 1 */
 268:D:\dholler\Dokumente\uni\bus\xmc\usbCanNode\Libraries\XMCLib\inc\xmc_can.h ****   XMC_CAN_MO_SET_STATUS_MESSAGE_DIRECTION = CAN_MO_MOCTR_SETDIR_Msk /**< Set message direction */
 269:D:\dholler\Dokumente\uni\bus\xmc\usbCanNode\Libraries\XMCLib\inc\xmc_can.h **** } XMC_CAN_MO_SET_STATUS_t;
 270:D:\dholler\Dokumente\uni\bus\xmc\usbCanNode\Libraries\XMCLib\inc\xmc_can.h **** 
 271:D:\dholler\Dokumente\uni\bus\xmc\usbCanNode\Libraries\XMCLib\inc\xmc_can.h **** /**
 272:D:\dholler\Dokumente\uni\bus\xmc\usbCanNode\Libraries\XMCLib\inc\xmc_can.h ****  * Defines mask value for CAN Message Object reset status. Use type \a XMC_CAN_MO_RESET_STATUS_t fo
 273:D:\dholler\Dokumente\uni\bus\xmc\usbCanNode\Libraries\XMCLib\inc\xmc_can.h ****  */
 274:D:\dholler\Dokumente\uni\bus\xmc\usbCanNode\Libraries\XMCLib\inc\xmc_can.h **** typedef enum XMC_CAN_MO_RESET_STATUS
 275:D:\dholler\Dokumente\uni\bus\xmc\usbCanNode\Libraries\XMCLib\inc\xmc_can.h **** {
 276:D:\dholler\Dokumente\uni\bus\xmc\usbCanNode\Libraries\XMCLib\inc\xmc_can.h ****   XMC_CAN_MO_RESET_STATUS_RX_PENDING = CAN_MO_MOCTR_RESRXPND_Msk,     /**< Reset receive pending */
 277:D:\dholler\Dokumente\uni\bus\xmc\usbCanNode\Libraries\XMCLib\inc\xmc_can.h ****   XMC_CAN_MO_RESET_STATUS_TX_PENDING = CAN_MO_MOCTR_RESTXPND_Msk,     /**< Reset transmit pending *
 278:D:\dholler\Dokumente\uni\bus\xmc\usbCanNode\Libraries\XMCLib\inc\xmc_can.h ****   XMC_CAN_MO_RESET_STATUS_RX_UPDATING = CAN_MO_MOCTR_RESRXUPD_Msk,    /**< Reset receive updating *
 279:D:\dholler\Dokumente\uni\bus\xmc\usbCanNode\Libraries\XMCLib\inc\xmc_can.h ****   XMC_CAN_MO_RESET_STATUS_NEW_DATA = CAN_MO_MOCTR_RESNEWDAT_Msk,      /**< Reset new data */
 280:D:\dholler\Dokumente\uni\bus\xmc\usbCanNode\Libraries\XMCLib\inc\xmc_can.h ****   XMC_CAN_MO_RESET_STATUS_MESSAGE_LOST = CAN_MO_MOCTR_RESMSGLST_Msk,  /**< Reset message lost */
 281:D:\dholler\Dokumente\uni\bus\xmc\usbCanNode\Libraries\XMCLib\inc\xmc_can.h ****   XMC_CAN_MO_RESET_STATUS_MESSAGE_VALID = CAN_MO_MOCTR_RESMSGVAL_Msk, /**< Reset message valid */
 282:D:\dholler\Dokumente\uni\bus\xmc\usbCanNode\Libraries\XMCLib\inc\xmc_can.h ****   XMC_CAN_MO_RESET_STATUS_RX_TX_SELECTED = CAN_MO_MOCTR_RESRTSEL_Msk, /**< Reset transmit/receive s
 283:D:\dholler\Dokumente\uni\bus\xmc\usbCanNode\Libraries\XMCLib\inc\xmc_can.h ****   XMC_CAN_MO_RESET_STATUS_RX_ENABLE = CAN_MO_MOCTR_RESRXEN_Msk,       /**< Reset receive enable */
 284:D:\dholler\Dokumente\uni\bus\xmc\usbCanNode\Libraries\XMCLib\inc\xmc_can.h ****   XMC_CAN_MO_RESET_STATUS_TX_REQUEST = CAN_MO_MOCTR_RESTXRQ_Msk,      /**< Reset transmit request *
 285:D:\dholler\Dokumente\uni\bus\xmc\usbCanNode\Libraries\XMCLib\inc\xmc_can.h ****   XMC_CAN_MO_RESET_STATUS_TX_ENABLE0 = CAN_MO_MOCTR_RESTXEN0_Msk,     /**< Reset transmit enable 0 
 286:D:\dholler\Dokumente\uni\bus\xmc\usbCanNode\Libraries\XMCLib\inc\xmc_can.h ****   XMC_CAN_MO_RESET_STATUS_TX_ENABLE1 = CAN_MO_MOCTR_RESTXEN1_Msk,     /**< Reset transmit enable 1 
 287:D:\dholler\Dokumente\uni\bus\xmc\usbCanNode\Libraries\XMCLib\inc\xmc_can.h ****   XMC_CAN_MO_RESET_STATUS_MESSAGE_DIRECTION = CAN_MO_MOCTR_RESDIR_Msk /**< Reset message direction 
 288:D:\dholler\Dokumente\uni\bus\xmc\usbCanNode\Libraries\XMCLib\inc\xmc_can.h **** } XMC_CAN_MO_RESET_STATUS_t;
 289:D:\dholler\Dokumente\uni\bus\xmc\usbCanNode\Libraries\XMCLib\inc\xmc_can.h **** 
 290:D:\dholler\Dokumente\uni\bus\xmc\usbCanNode\Libraries\XMCLib\inc\xmc_can.h **** /**
 291:D:\dholler\Dokumente\uni\bus\xmc\usbCanNode\Libraries\XMCLib\inc\xmc_can.h ****  * Defines mask value for CAN Message Object status. Use type \a XMC_CAN_MO_STATUS_t for this enum.
 292:D:\dholler\Dokumente\uni\bus\xmc\usbCanNode\Libraries\XMCLib\inc\xmc_can.h ****  */
 293:D:\dholler\Dokumente\uni\bus\xmc\usbCanNode\Libraries\XMCLib\inc\xmc_can.h **** typedef enum XMC_CAN_MO_STATUS
 294:D:\dholler\Dokumente\uni\bus\xmc\usbCanNode\Libraries\XMCLib\inc\xmc_can.h **** {
 295:D:\dholler\Dokumente\uni\bus\xmc\usbCanNode\Libraries\XMCLib\inc\xmc_can.h ****   XMC_CAN_MO_STATUS_RX_PENDING = CAN_MO_MOSTAT_RXPND_Msk,                   /**< Defines message ha
 296:D:\dholler\Dokumente\uni\bus\xmc\usbCanNode\Libraries\XMCLib\inc\xmc_can.h ****   XMC_CAN_MO_STATUS_TX_PENDING = CAN_MO_MOSTAT_TXPND_Msk,                   /**< Defines message ha
 297:D:\dholler\Dokumente\uni\bus\xmc\usbCanNode\Libraries\XMCLib\inc\xmc_can.h ****   XMC_CAN_MO_STATUS_RX_UPDATING = CAN_MO_MOSTAT_RXUPD_Msk,                  /**< Defines Message id
 298:D:\dholler\Dokumente\uni\bus\xmc\usbCanNode\Libraries\XMCLib\inc\xmc_can.h ****   XMC_CAN_MO_STATUS_NEW_DATA = CAN_MO_MOSTAT_NEWDAT_Msk,                    /**< Defines no update 
 299:D:\dholler\Dokumente\uni\bus\xmc\usbCanNode\Libraries\XMCLib\inc\xmc_can.h ****   XMC_CAN_MO_STATUS_MESSAGE_LOST = CAN_MO_MOSTAT_MSGLST_Msk,                /**< CAN message is los
 300:D:\dholler\Dokumente\uni\bus\xmc\usbCanNode\Libraries\XMCLib\inc\xmc_can.h ****   XMC_CAN_MO_STATUS_MESSAGE_VALID = CAN_MO_MOSTAT_MSGVAL_Msk,               /**< Message valid */
 301:D:\dholler\Dokumente\uni\bus\xmc\usbCanNode\Libraries\XMCLib\inc\xmc_can.h ****   XMC_CAN_MO_STATUS_RX_TX_SELECTED = CAN_MO_MOSTAT_RTSEL_Msk,               /**< Transmit/Receive s
 302:D:\dholler\Dokumente\uni\bus\xmc\usbCanNode\Libraries\XMCLib\inc\xmc_can.h ****   XMC_CAN_MO_STATUS_RX_ENABLE = CAN_MO_MOSTAT_RXEN_Msk,                     /**< Receive enable */
 303:D:\dholler\Dokumente\uni\bus\xmc\usbCanNode\Libraries\XMCLib\inc\xmc_can.h ****   XMC_CAN_MO_STATUS_TX_REQUEST = CAN_MO_MOSTAT_TXRQ_Msk,                    /**< Transmit request *
 304:D:\dholler\Dokumente\uni\bus\xmc\usbCanNode\Libraries\XMCLib\inc\xmc_can.h ****   XMC_CAN_MO_STATUS_TX_ENABLE0 = CAN_MO_MOSTAT_TXEN0_Msk,                   /**< Transmit enable 0 
 305:D:\dholler\Dokumente\uni\bus\xmc\usbCanNode\Libraries\XMCLib\inc\xmc_can.h ****   XMC_CAN_MO_STATUS_TX_ENABLE1 = CAN_MO_MOSTAT_TXEN1_Msk,                   /**< Transmit enable 1 
 306:D:\dholler\Dokumente\uni\bus\xmc\usbCanNode\Libraries\XMCLib\inc\xmc_can.h ****   XMC_CAN_MO_STATUS_MESSAGE_DIRECTION = CAN_MO_MOSTAT_DIR_Msk,              /**< Message direction 
 307:D:\dholler\Dokumente\uni\bus\xmc\usbCanNode\Libraries\XMCLib\inc\xmc_can.h ****   XMC_CAN_MO_STATUS_LIST = CAN_MO_MOSTAT_LIST_Msk,                          /**< List allocation */
 308:D:\dholler\Dokumente\uni\bus\xmc\usbCanNode\Libraries\XMCLib\inc\xmc_can.h ****   XMC_CAN_MO_STATUS_POINTER_TO_PREVIOUS_MO = CAN_MO_MOSTAT_PPREV_Msk,    	/**< Pointer to previous 
 309:D:\dholler\Dokumente\uni\bus\xmc\usbCanNode\Libraries\XMCLib\inc\xmc_can.h ****   XMC_CAN_MO_STATUS_POINTER_TO_NEXT_MO = (int32_t)CAN_MO_MOSTAT_PNEXT_Msk   /**< Pointer to next Me
 310:D:\dholler\Dokumente\uni\bus\xmc\usbCanNode\Libraries\XMCLib\inc\xmc_can.h **** } XMC_CAN_MO_STATUS_t;
 311:D:\dholler\Dokumente\uni\bus\xmc\usbCanNode\Libraries\XMCLib\inc\xmc_can.h **** 
 312:D:\dholler\Dokumente\uni\bus\xmc\usbCanNode\Libraries\XMCLib\inc\xmc_can.h **** /**
 313:D:\dholler\Dokumente\uni\bus\xmc\usbCanNode\Libraries\XMCLib\inc\xmc_can.h ****  * Defines mask value for CAN Node status. Use type \a XMC_CAN_NODE_STATUS_t for this enum.
 314:D:\dholler\Dokumente\uni\bus\xmc\usbCanNode\Libraries\XMCLib\inc\xmc_can.h ****  */
 315:D:\dholler\Dokumente\uni\bus\xmc\usbCanNode\Libraries\XMCLib\inc\xmc_can.h **** typedef enum XMC_CAN_NODE_STATUS
 316:D:\dholler\Dokumente\uni\bus\xmc\usbCanNode\Libraries\XMCLib\inc\xmc_can.h **** {
 317:D:\dholler\Dokumente\uni\bus\xmc\usbCanNode\Libraries\XMCLib\inc\xmc_can.h ****   XMC_CAN_NODE_STATUS_LAST_ERROR_CODE = CAN_NODE_NSR_LEC_Msk,       /**< Last Error Code */
 318:D:\dholler\Dokumente\uni\bus\xmc\usbCanNode\Libraries\XMCLib\inc\xmc_can.h ****   XMC_CAN_NODE_STATUS_TX_OK = CAN_NODE_NSR_TXOK_Msk,                /**< Message transmitted succes
 319:D:\dholler\Dokumente\uni\bus\xmc\usbCanNode\Libraries\XMCLib\inc\xmc_can.h ****   XMC_CAN_NODE_STATUS_RX_OK = CAN_NODE_NSR_RXOK_Msk,                /**< Message received successfu
 320:D:\dholler\Dokumente\uni\bus\xmc\usbCanNode\Libraries\XMCLib\inc\xmc_can.h ****   XMC_CAN_NODE_STATUS_ALERT_WARNING = CAN_NODE_NSR_ALERT_Msk,       /**< Alert warning */
 321:D:\dholler\Dokumente\uni\bus\xmc\usbCanNode\Libraries\XMCLib\inc\xmc_can.h ****   XMC_CAN_NODE_STATUS_ERROR_WARNING_STATUS = CAN_NODE_NSR_EWRN_Msk, /**< Error warning status */
 322:D:\dholler\Dokumente\uni\bus\xmc\usbCanNode\Libraries\XMCLib\inc\xmc_can.h ****   XMC_CAN_NODE_STATUS_BUS_OFF= CAN_NODE_NSR_BOFF_Msk,				/**< Bus-off status */
 323:D:\dholler\Dokumente\uni\bus\xmc\usbCanNode\Libraries\XMCLib\inc\xmc_can.h ****   XMC_CAN_NODE_STATUS_LIST_LENGTH_ERROR = CAN_NODE_NSR_LLE_Msk,     /**< List length error */
 324:D:\dholler\Dokumente\uni\bus\xmc\usbCanNode\Libraries\XMCLib\inc\xmc_can.h ****   XMC_CAN_NODE_STATUS_LIST_OBJECT_ERROR = CAN_NODE_NSR_LOE_Msk,     /**< List object error */
 325:D:\dholler\Dokumente\uni\bus\xmc\usbCanNode\Libraries\XMCLib\inc\xmc_can.h **** #if !defined(MULTICAN_PLUS)
 326:D:\dholler\Dokumente\uni\bus\xmc\usbCanNode\Libraries\XMCLib\inc\xmc_can.h ****   XMC_CAN_NODE_STATUS_SUSPENDED_ACK = CAN_NODE_NSR_SUSACK_Msk       /**< Suspend Acknowledge */
 327:D:\dholler\Dokumente\uni\bus\xmc\usbCanNode\Libraries\XMCLib\inc\xmc_can.h **** #endif
 328:D:\dholler\Dokumente\uni\bus\xmc\usbCanNode\Libraries\XMCLib\inc\xmc_can.h **** } XMC_CAN_NODE_STATUS_t;
 329:D:\dholler\Dokumente\uni\bus\xmc\usbCanNode\Libraries\XMCLib\inc\xmc_can.h **** 
 330:D:\dholler\Dokumente\uni\bus\xmc\usbCanNode\Libraries\XMCLib\inc\xmc_can.h **** /**
 331:D:\dholler\Dokumente\uni\bus\xmc\usbCanNode\Libraries\XMCLib\inc\xmc_can.h ****  * Defines mask value for CAN Node control like initialization, node disable and analyzer mode .
 332:D:\dholler\Dokumente\uni\bus\xmc\usbCanNode\Libraries\XMCLib\inc\xmc_can.h ****  * Use type \a XMC_CAN_NODE_CONTROL_t for this enum.
 333:D:\dholler\Dokumente\uni\bus\xmc\usbCanNode\Libraries\XMCLib\inc\xmc_can.h ****  */
 334:D:\dholler\Dokumente\uni\bus\xmc\usbCanNode\Libraries\XMCLib\inc\xmc_can.h **** typedef enum XMC_CAN_NODE_CONTROL
 335:D:\dholler\Dokumente\uni\bus\xmc\usbCanNode\Libraries\XMCLib\inc\xmc_can.h **** {
 336:D:\dholler\Dokumente\uni\bus\xmc\usbCanNode\Libraries\XMCLib\inc\xmc_can.h ****   XMC_CAN_NODE_CONTROL_NODE_INIT = CAN_NODE_NCR_INIT_Msk,            /**< Node initialization */
 337:D:\dholler\Dokumente\uni\bus\xmc\usbCanNode\Libraries\XMCLib\inc\xmc_can.h ****   XMC_CAN_NODE_CONTROL_TX_INT_ENABLE = CAN_NODE_NCR_TRIE_Msk,        /**< Transfer event enable */
 338:D:\dholler\Dokumente\uni\bus\xmc\usbCanNode\Libraries\XMCLib\inc\xmc_can.h ****   XMC_CAN_NODE_CONTROL_LEC_INT_ENABLE = CAN_NODE_NCR_LECIE_Msk,      /**< LEC Indicated Error Event
 339:D:\dholler\Dokumente\uni\bus\xmc\usbCanNode\Libraries\XMCLib\inc\xmc_can.h ****   XMC_CAN_NODE_CONTROL_ALERT_INT_ENABLE = CAN_NODE_NCR_ALIE_Msk,     /**< Alert Event Enable */
 340:D:\dholler\Dokumente\uni\bus\xmc\usbCanNode\Libraries\XMCLib\inc\xmc_can.h ****   XMC_CAN_NODE_CONTROL_CAN_DISABLE = CAN_NODE_NCR_CANDIS_Msk,        /**< CAN disable */
 341:D:\dholler\Dokumente\uni\bus\xmc\usbCanNode\Libraries\XMCLib\inc\xmc_can.h ****   XMC_CAN_NODE_CONTROL_CONF_CHANGE_ENABLE= CAN_NODE_NCR_CCE_Msk,     /**< Configuration change enab
 342:D:\dholler\Dokumente\uni\bus\xmc\usbCanNode\Libraries\XMCLib\inc\xmc_can.h ****   XMC_CAN_NODE_CONTROL_CAN_ANALYZER_NODEDE = CAN_NODE_NCR_CALM_Msk,  /**< CAN Analyzer mode */
 343:D:\dholler\Dokumente\uni\bus\xmc\usbCanNode\Libraries\XMCLib\inc\xmc_can.h **** #if !defined(MULTICAN_PLUS)
 344:D:\dholler\Dokumente\uni\bus\xmc\usbCanNode\Libraries\XMCLib\inc\xmc_can.h ****   XMC_CAN_NODE_CONTROL_SUSPENDED_ENABLE = CAN_NODE_NCR_SUSEN_Msk     /**< Suspend Enable */
 345:D:\dholler\Dokumente\uni\bus\xmc\usbCanNode\Libraries\XMCLib\inc\xmc_can.h **** #endif
 346:D:\dholler\Dokumente\uni\bus\xmc\usbCanNode\Libraries\XMCLib\inc\xmc_can.h **** } XMC_CAN_NODE_CONTROL_t;
 347:D:\dholler\Dokumente\uni\bus\xmc\usbCanNode\Libraries\XMCLib\inc\xmc_can.h **** 
 348:D:\dholler\Dokumente\uni\bus\xmc\usbCanNode\Libraries\XMCLib\inc\xmc_can.h **** /**
 349:D:\dholler\Dokumente\uni\bus\xmc\usbCanNode\Libraries\XMCLib\inc\xmc_can.h ****  * Defines mask value for CAN Node events. Use type \a XMC_CAN_NODE_EVENT_t for this enum.
 350:D:\dholler\Dokumente\uni\bus\xmc\usbCanNode\Libraries\XMCLib\inc\xmc_can.h ****  */
 351:D:\dholler\Dokumente\uni\bus\xmc\usbCanNode\Libraries\XMCLib\inc\xmc_can.h **** typedef enum XMC_CAN_NODE_EVENT
 352:D:\dholler\Dokumente\uni\bus\xmc\usbCanNode\Libraries\XMCLib\inc\xmc_can.h **** {
 353:D:\dholler\Dokumente\uni\bus\xmc\usbCanNode\Libraries\XMCLib\inc\xmc_can.h ****   XMC_CAN_NODE_EVENT_TX_INT = CAN_NODE_NCR_TRIE_Msk,   /**< Node Transfer OK Event */
 354:D:\dholler\Dokumente\uni\bus\xmc\usbCanNode\Libraries\XMCLib\inc\xmc_can.h ****   XMC_CAN_NODE_EVENT_ALERT = CAN_NODE_NCR_ALIE_Msk,    /**< Node Alert Event */
 355:D:\dholler\Dokumente\uni\bus\xmc\usbCanNode\Libraries\XMCLib\inc\xmc_can.h ****   XMC_CAN_NODE_EVENT_LEC = CAN_NODE_NCR_LECIE_Msk,     /**< Last Error code Event */
 356:D:\dholler\Dokumente\uni\bus\xmc\usbCanNode\Libraries\XMCLib\inc\xmc_can.h ****   XMC_CAN_NODE_EVENT_CFCIE = CAN_NODE_NFCR_CFCIE_Msk   /**< CAN Frame Count Event  */
 357:D:\dholler\Dokumente\uni\bus\xmc\usbCanNode\Libraries\XMCLib\inc\xmc_can.h **** } XMC_CAN_NODE_EVENT_t;
 358:D:\dholler\Dokumente\uni\bus\xmc\usbCanNode\Libraries\XMCLib\inc\xmc_can.h **** 
 359:D:\dholler\Dokumente\uni\bus\xmc\usbCanNode\Libraries\XMCLib\inc\xmc_can.h **** /**
 360:D:\dholler\Dokumente\uni\bus\xmc\usbCanNode\Libraries\XMCLib\inc\xmc_can.h ****  * Defines mask value for CAN node pointer events position. Use type \a XMC_CAN_NODE_POINTER_EVENT_
 361:D:\dholler\Dokumente\uni\bus\xmc\usbCanNode\Libraries\XMCLib\inc\xmc_can.h ****  */
 362:D:\dholler\Dokumente\uni\bus\xmc\usbCanNode\Libraries\XMCLib\inc\xmc_can.h **** typedef enum XMC_CAN_NODE_POINTER_EVENT
 363:D:\dholler\Dokumente\uni\bus\xmc\usbCanNode\Libraries\XMCLib\inc\xmc_can.h **** {
 364:D:\dholler\Dokumente\uni\bus\xmc\usbCanNode\Libraries\XMCLib\inc\xmc_can.h ****   XMC_CAN_NODE_POINTER_EVENT_ALERT = CAN_NODE_NIPR_ALINP_Pos,           /**< Node Alert Event node 
 365:D:\dholler\Dokumente\uni\bus\xmc\usbCanNode\Libraries\XMCLib\inc\xmc_can.h ****   XMC_CAN_NODE_POINTER_EVENT_LEC = CAN_NODE_NIPR_LECINP_Pos,            /**< Last Error code Event 
 366:D:\dholler\Dokumente\uni\bus\xmc\usbCanNode\Libraries\XMCLib\inc\xmc_can.h ****   XMC_CAN_NODE_POINTER_EVENT_TRANSFER_OK = CAN_NODE_NIPR_TRINP_Pos,     /**< Transmit Event node po
 367:D:\dholler\Dokumente\uni\bus\xmc\usbCanNode\Libraries\XMCLib\inc\xmc_can.h ****   XMC_CAN_NODE_POINTER_EVENT_FRAME_COUNTER = CAN_NODE_NIPR_CFCINP_Pos   /**< CAN Frame Count Event 
 368:D:\dholler\Dokumente\uni\bus\xmc\usbCanNode\Libraries\XMCLib\inc\xmc_can.h **** } XMC_CAN_NODE_POINTER_EVENT_t;
 369:D:\dholler\Dokumente\uni\bus\xmc\usbCanNode\Libraries\XMCLib\inc\xmc_can.h **** 
 370:D:\dholler\Dokumente\uni\bus\xmc\usbCanNode\Libraries\XMCLib\inc\xmc_can.h **** /**
 371:D:\dholler\Dokumente\uni\bus\xmc\usbCanNode\Libraries\XMCLib\inc\xmc_can.h ****  * Defines CAN Message Object event node pointer position. Use type \a XMC_CAN_MO_POINTER_EVENT_t f
 372:D:\dholler\Dokumente\uni\bus\xmc\usbCanNode\Libraries\XMCLib\inc\xmc_can.h ****  */
 373:D:\dholler\Dokumente\uni\bus\xmc\usbCanNode\Libraries\XMCLib\inc\xmc_can.h **** typedef enum XMC_CAN_MO_POINTER_EVENT
 374:D:\dholler\Dokumente\uni\bus\xmc\usbCanNode\Libraries\XMCLib\inc\xmc_can.h **** {
 375:D:\dholler\Dokumente\uni\bus\xmc\usbCanNode\Libraries\XMCLib\inc\xmc_can.h ****   XMC_CAN_MO_POINTER_EVENT_TRANSMIT = CAN_MO_MOIPR_TXINP_Pos,     /**< Transmit Event node pointer 
 376:D:\dholler\Dokumente\uni\bus\xmc\usbCanNode\Libraries\XMCLib\inc\xmc_can.h ****   XMC_CAN_MO_POINTER_EVENT_RECEIVE = CAN_MO_MOIPR_RXINP_Pos       /**< Receive Event node pointer *
 377:D:\dholler\Dokumente\uni\bus\xmc\usbCanNode\Libraries\XMCLib\inc\xmc_can.h **** } XMC_CAN_MO_POINTER_EVENT_t;
 378:D:\dholler\Dokumente\uni\bus\xmc\usbCanNode\Libraries\XMCLib\inc\xmc_can.h **** 
 379:D:\dholler\Dokumente\uni\bus\xmc\usbCanNode\Libraries\XMCLib\inc\xmc_can.h **** /**
 380:D:\dholler\Dokumente\uni\bus\xmc\usbCanNode\Libraries\XMCLib\inc\xmc_can.h ****  * Defines mask value for CAN Message Object event type. Use type \a XMC_CAN_MO_EVENT_t for this en
 381:D:\dholler\Dokumente\uni\bus\xmc\usbCanNode\Libraries\XMCLib\inc\xmc_can.h ****  */
 382:D:\dholler\Dokumente\uni\bus\xmc\usbCanNode\Libraries\XMCLib\inc\xmc_can.h **** typedef enum XMC_CAN_MO_EVENT
 383:D:\dholler\Dokumente\uni\bus\xmc\usbCanNode\Libraries\XMCLib\inc\xmc_can.h **** {
 384:D:\dholler\Dokumente\uni\bus\xmc\usbCanNode\Libraries\XMCLib\inc\xmc_can.h ****   XMC_CAN_MO_EVENT_TRANSMIT = CAN_MO_MOFCR_TXIE_Msk,  /**< Message Object transmit event */
 385:D:\dholler\Dokumente\uni\bus\xmc\usbCanNode\Libraries\XMCLib\inc\xmc_can.h ****   XMC_CAN_MO_EVENT_RECEIVE = CAN_MO_MOFCR_RXIE_Msk,   /**< Message Object receive event */
 386:D:\dholler\Dokumente\uni\bus\xmc\usbCanNode\Libraries\XMCLib\inc\xmc_can.h ****   XMC_CAN_MO_EVENT_OVERFLOW = CAN_MO_MOFCR_OVIE_Msk,  /**< Message Object overflow event */
 387:D:\dholler\Dokumente\uni\bus\xmc\usbCanNode\Libraries\XMCLib\inc\xmc_can.h **** } XMC_CAN_MO_EVENT_t;
 388:D:\dholler\Dokumente\uni\bus\xmc\usbCanNode\Libraries\XMCLib\inc\xmc_can.h **** 
 389:D:\dholler\Dokumente\uni\bus\xmc\usbCanNode\Libraries\XMCLib\inc\xmc_can.h **** /**
 390:D:\dholler\Dokumente\uni\bus\xmc\usbCanNode\Libraries\XMCLib\inc\xmc_can.h ****  * Defines the possible receive inputs. Use type \a XMC_CAN_NODE_RECEIVE_INPUT_t for this enum.
 391:D:\dholler\Dokumente\uni\bus\xmc\usbCanNode\Libraries\XMCLib\inc\xmc_can.h ****  */
 392:D:\dholler\Dokumente\uni\bus\xmc\usbCanNode\Libraries\XMCLib\inc\xmc_can.h **** typedef enum XMC_CAN_NODE_RECEIVE_INPUT
 393:D:\dholler\Dokumente\uni\bus\xmc\usbCanNode\Libraries\XMCLib\inc\xmc_can.h **** {
 394:D:\dholler\Dokumente\uni\bus\xmc\usbCanNode\Libraries\XMCLib\inc\xmc_can.h ****   XMC_CAN_NODE_RECEIVE_INPUT_RXDCA, 	/**< CAN Receive Input A */
 395:D:\dholler\Dokumente\uni\bus\xmc\usbCanNode\Libraries\XMCLib\inc\xmc_can.h ****   XMC_CAN_NODE_RECEIVE_INPUT_RXDCB,		/**< CAN Receive Input B */
 396:D:\dholler\Dokumente\uni\bus\xmc\usbCanNode\Libraries\XMCLib\inc\xmc_can.h ****   XMC_CAN_NODE_RECEIVE_INPUT_RXDCC,		/**< CAN Receive Input C */
 397:D:\dholler\Dokumente\uni\bus\xmc\usbCanNode\Libraries\XMCLib\inc\xmc_can.h ****   XMC_CAN_NODE_RECEIVE_INPUT_RXDCD,		/**< CAN Receive Input D */
 398:D:\dholler\Dokumente\uni\bus\xmc\usbCanNode\Libraries\XMCLib\inc\xmc_can.h ****   XMC_CAN_NODE_RECEIVE_INPUT_RXDCE,		/**< CAN Receive Input E */
 399:D:\dholler\Dokumente\uni\bus\xmc\usbCanNode\Libraries\XMCLib\inc\xmc_can.h ****   XMC_CAN_NODE_RECEIVE_INPUT_RXDCF,		/**< CAN Receive Input F */
 400:D:\dholler\Dokumente\uni\bus\xmc\usbCanNode\Libraries\XMCLib\inc\xmc_can.h ****   XMC_CAN_NODE_RECEIVE_INPUT_RXDCG,		/**< CAN Receive Input G */
 401:D:\dholler\Dokumente\uni\bus\xmc\usbCanNode\Libraries\XMCLib\inc\xmc_can.h ****   XMC_CAN_NODE_RECEIVE_INPUT_RXDCH		/**< CAN Receive Input H */
 402:D:\dholler\Dokumente\uni\bus\xmc\usbCanNode\Libraries\XMCLib\inc\xmc_can.h **** } XMC_CAN_NODE_RECEIVE_INPUT_t;
 403:D:\dholler\Dokumente\uni\bus\xmc\usbCanNode\Libraries\XMCLib\inc\xmc_can.h **** 
 404:D:\dholler\Dokumente\uni\bus\xmc\usbCanNode\Libraries\XMCLib\inc\xmc_can.h **** /**
 405:D:\dholler\Dokumente\uni\bus\xmc\usbCanNode\Libraries\XMCLib\inc\xmc_can.h ****  * Defines last error transfer direction. Use type \a XMC_CAN_NODE_LAST_ERROR_DIR_t for this enum.
 406:D:\dholler\Dokumente\uni\bus\xmc\usbCanNode\Libraries\XMCLib\inc\xmc_can.h ****  */
 407:D:\dholler\Dokumente\uni\bus\xmc\usbCanNode\Libraries\XMCLib\inc\xmc_can.h **** typedef enum XMC_CAN_NODE_LAST_ERROR_DIR
 408:D:\dholler\Dokumente\uni\bus\xmc\usbCanNode\Libraries\XMCLib\inc\xmc_can.h **** {
 409:D:\dholler\Dokumente\uni\bus\xmc\usbCanNode\Libraries\XMCLib\inc\xmc_can.h ****   XMC_CAN_NODE_LAST_ERROR_DIR_WHILE_NODE_RECEPCION,    /**< The last error occurred while the CAN n
 410:D:\dholler\Dokumente\uni\bus\xmc\usbCanNode\Libraries\XMCLib\inc\xmc_can.h ****   XMC_CAN_NODE_LAST_ERROR_DIR_WHILE_NODE_TRANSMISSION  /**< The last error occurred while the CAN n
 411:D:\dholler\Dokumente\uni\bus\xmc\usbCanNode\Libraries\XMCLib\inc\xmc_can.h **** } XMC_CAN_NODE_LAST_ERROR_DIR_t;
 412:D:\dholler\Dokumente\uni\bus\xmc\usbCanNode\Libraries\XMCLib\inc\xmc_can.h **** 
 413:D:\dholler\Dokumente\uni\bus\xmc\usbCanNode\Libraries\XMCLib\inc\xmc_can.h **** 
 414:D:\dholler\Dokumente\uni\bus\xmc\usbCanNode\Libraries\XMCLib\inc\xmc_can.h **** /**
 415:D:\dholler\Dokumente\uni\bus\xmc\usbCanNode\Libraries\XMCLib\inc\xmc_can.h ****  * Defines last error increment. Use type \a XMC_CAN_NODE_LAST_ERROR_INC_t for this enum.
 416:D:\dholler\Dokumente\uni\bus\xmc\usbCanNode\Libraries\XMCLib\inc\xmc_can.h ****  */
 417:D:\dholler\Dokumente\uni\bus\xmc\usbCanNode\Libraries\XMCLib\inc\xmc_can.h **** typedef enum XMC_CAN_NODE_LAST_ERROR_INC
 418:D:\dholler\Dokumente\uni\bus\xmc\usbCanNode\Libraries\XMCLib\inc\xmc_can.h **** {
 419:D:\dholler\Dokumente\uni\bus\xmc\usbCanNode\Libraries\XMCLib\inc\xmc_can.h ****   XMC_CAN_NODE_LAST_ERROR_INC_1, /**< The last error led to an error counter increment of 1. */
 420:D:\dholler\Dokumente\uni\bus\xmc\usbCanNode\Libraries\XMCLib\inc\xmc_can.h ****   XMC_CAN_NODE_LAST_ERROR_INC_8  /**< The last error led to an error counter increment of 8. */
 421:D:\dholler\Dokumente\uni\bus\xmc\usbCanNode\Libraries\XMCLib\inc\xmc_can.h **** } XMC_CAN_NODE_LAST_ERROR_INC_t;
 422:D:\dholler\Dokumente\uni\bus\xmc\usbCanNode\Libraries\XMCLib\inc\xmc_can.h **** 
 423:D:\dholler\Dokumente\uni\bus\xmc\usbCanNode\Libraries\XMCLib\inc\xmc_can.h **** /**
 424:D:\dholler\Dokumente\uni\bus\xmc\usbCanNode\Libraries\XMCLib\inc\xmc_can.h ****  * Defines interrupt request on interrupt output line INT_O[n]. Use type \a XMC_CAN_NODE_INTERRUPT_
 425:D:\dholler\Dokumente\uni\bus\xmc\usbCanNode\Libraries\XMCLib\inc\xmc_can.h ****  */
 426:D:\dholler\Dokumente\uni\bus\xmc\usbCanNode\Libraries\XMCLib\inc\xmc_can.h **** typedef enum XMC_CAN_NODE_INTERRUPT_TRIGGER
 427:D:\dholler\Dokumente\uni\bus\xmc\usbCanNode\Libraries\XMCLib\inc\xmc_can.h **** {
 428:D:\dholler\Dokumente\uni\bus\xmc\usbCanNode\Libraries\XMCLib\inc\xmc_can.h ****   XMC_CAN_NODE_INTR_TRIGGER_0 = 0x1U,
 429:D:\dholler\Dokumente\uni\bus\xmc\usbCanNode\Libraries\XMCLib\inc\xmc_can.h ****   XMC_CAN_NODE_INTR_TRIGGER_1 = 0x2U,
 430:D:\dholler\Dokumente\uni\bus\xmc\usbCanNode\Libraries\XMCLib\inc\xmc_can.h ****   XMC_CAN_NODE_INTR_TRIGGER_2 = 0x4U,
 431:D:\dholler\Dokumente\uni\bus\xmc\usbCanNode\Libraries\XMCLib\inc\xmc_can.h ****   XMC_CAN_NODE_INTR_TRIGGER_3 = 0x8U,
 432:D:\dholler\Dokumente\uni\bus\xmc\usbCanNode\Libraries\XMCLib\inc\xmc_can.h ****   XMC_CAN_NODE_INTR_TRIGGER_4 = 0x16U,
 433:D:\dholler\Dokumente\uni\bus\xmc\usbCanNode\Libraries\XMCLib\inc\xmc_can.h ****   XMC_CAN_NODE_INTR_TRIGGER_5 = 0x32U,
 434:D:\dholler\Dokumente\uni\bus\xmc\usbCanNode\Libraries\XMCLib\inc\xmc_can.h ****   XMC_CAN_NODE_INTR_TRIGGER_6 = 0x64U,
 435:D:\dholler\Dokumente\uni\bus\xmc\usbCanNode\Libraries\XMCLib\inc\xmc_can.h ****   XMC_CAN_NODE_INTR_TRIGGER_7 = 0x128U,
 436:D:\dholler\Dokumente\uni\bus\xmc\usbCanNode\Libraries\XMCLib\inc\xmc_can.h **** } XMC_CAN_NODE_INTERRUPT_TRIGGER_t;
 437:D:\dholler\Dokumente\uni\bus\xmc\usbCanNode\Libraries\XMCLib\inc\xmc_can.h **** 
 438:D:\dholler\Dokumente\uni\bus\xmc\usbCanNode\Libraries\XMCLib\inc\xmc_can.h **** #if defined(MULTICAN_PLUS) || defined(DOXYGEN)
 439:D:\dholler\Dokumente\uni\bus\xmc\usbCanNode\Libraries\XMCLib\inc\xmc_can.h **** /**
 440:D:\dholler\Dokumente\uni\bus\xmc\usbCanNode\Libraries\XMCLib\inc\xmc_can.h ****  * Defines the Clock source used for the MCAN peripheral. @note Only available for XMC1400, XMC4800
 441:D:\dholler\Dokumente\uni\bus\xmc\usbCanNode\Libraries\XMCLib\inc\xmc_can.h ****  */
 442:D:\dholler\Dokumente\uni\bus\xmc\usbCanNode\Libraries\XMCLib\inc\xmc_can.h **** typedef enum XMC_CAN_CANCLKSRC
 443:D:\dholler\Dokumente\uni\bus\xmc\usbCanNode\Libraries\XMCLib\inc\xmc_can.h **** {
 444:D:\dholler\Dokumente\uni\bus\xmc\usbCanNode\Libraries\XMCLib\inc\xmc_can.h **** #if UC_FAMILY == XMC4
 445:D:\dholler\Dokumente\uni\bus\xmc\usbCanNode\Libraries\XMCLib\inc\xmc_can.h ****   XMC_CAN_CANCLKSRC_FPERI = 0x1U,
 446:D:\dholler\Dokumente\uni\bus\xmc\usbCanNode\Libraries\XMCLib\inc\xmc_can.h ****   XMC_CAN_CANCLKSRC_FOHP = 0x2U,
 447:D:\dholler\Dokumente\uni\bus\xmc\usbCanNode\Libraries\XMCLib\inc\xmc_can.h **** #else
 448:D:\dholler\Dokumente\uni\bus\xmc\usbCanNode\Libraries\XMCLib\inc\xmc_can.h ****   XMC_CAN_CANCLKSRC_MCLK = 0x1U,
 449:D:\dholler\Dokumente\uni\bus\xmc\usbCanNode\Libraries\XMCLib\inc\xmc_can.h ****   XMC_CAN_CANCLKSRC_FOHP = 0x2U
 450:D:\dholler\Dokumente\uni\bus\xmc\usbCanNode\Libraries\XMCLib\inc\xmc_can.h **** #endif
 451:D:\dholler\Dokumente\uni\bus\xmc\usbCanNode\Libraries\XMCLib\inc\xmc_can.h **** } XMC_CAN_CANCLKSRC_t;
 452:D:\dholler\Dokumente\uni\bus\xmc\usbCanNode\Libraries\XMCLib\inc\xmc_can.h **** #endif
 453:D:\dholler\Dokumente\uni\bus\xmc\usbCanNode\Libraries\XMCLib\inc\xmc_can.h **** 
 454:D:\dholler\Dokumente\uni\bus\xmc\usbCanNode\Libraries\XMCLib\inc\xmc_can.h **** /**************************************************************************************************
 455:D:\dholler\Dokumente\uni\bus\xmc\usbCanNode\Libraries\XMCLib\inc\xmc_can.h ****  * DATA STRUCTURES
 456:D:\dholler\Dokumente\uni\bus\xmc\usbCanNode\Libraries\XMCLib\inc\xmc_can.h ****  **************************************************************************************************
 457:D:\dholler\Dokumente\uni\bus\xmc\usbCanNode\Libraries\XMCLib\inc\xmc_can.h **** /**
 458:D:\dholler\Dokumente\uni\bus\xmc\usbCanNode\Libraries\XMCLib\inc\xmc_can.h ****  * Defines CAN node Nominal Bit Time. Use type \a XMC_CAN_NODE_NOMINAL_BIT_TIME_CONFIG_t for this s
 459:D:\dholler\Dokumente\uni\bus\xmc\usbCanNode\Libraries\XMCLib\inc\xmc_can.h **** */
 460:D:\dholler\Dokumente\uni\bus\xmc\usbCanNode\Libraries\XMCLib\inc\xmc_can.h **** typedef struct XMC_CAN_NODE_NOMINAL_BIT_TIME_CONFIG
 461:D:\dholler\Dokumente\uni\bus\xmc\usbCanNode\Libraries\XMCLib\inc\xmc_can.h **** {
 462:D:\dholler\Dokumente\uni\bus\xmc\usbCanNode\Libraries\XMCLib\inc\xmc_can.h ****   uint32_t can_frequency;       /**< Frequency of the CAN module(fCAN). \a can_frequency shall be r
 463:D:\dholler\Dokumente\uni\bus\xmc\usbCanNode\Libraries\XMCLib\inc\xmc_can.h ****   uint32_t baudrate;        	/**< Specifies the node baud rate. Unit: baud \a baudrate shall be ran
 464:D:\dholler\Dokumente\uni\bus\xmc\usbCanNode\Libraries\XMCLib\inc\xmc_can.h ****   uint16_t sample_point;    	/**< Sample point is used to compensate mismatch between transmitter a
 465:D:\dholler\Dokumente\uni\bus\xmc\usbCanNode\Libraries\XMCLib\inc\xmc_can.h **** 									 the synchronization segment. Sample point. Range = [0, 10000] with respect [0%, 100%] of 
 466:D:\dholler\Dokumente\uni\bus\xmc\usbCanNode\Libraries\XMCLib\inc\xmc_can.h ****   uint16_t sjw;             	/**< (Re) Synchronization Jump Width. Range:0-3 */
 467:D:\dholler\Dokumente\uni\bus\xmc\usbCanNode\Libraries\XMCLib\inc\xmc_can.h **** } XMC_CAN_NODE_NOMINAL_BIT_TIME_CONFIG_t;
 468:D:\dholler\Dokumente\uni\bus\xmc\usbCanNode\Libraries\XMCLib\inc\xmc_can.h **** 
 469:D:\dholler\Dokumente\uni\bus\xmc\usbCanNode\Libraries\XMCLib\inc\xmc_can.h **** /**
 470:D:\dholler\Dokumente\uni\bus\xmc\usbCanNode\Libraries\XMCLib\inc\xmc_can.h ****  * Defines base, top and bottom of CAN Message Object FIFO Structure. Use type \a XMC_CAN_FIFO_CONF
 471:D:\dholler\Dokumente\uni\bus\xmc\usbCanNode\Libraries\XMCLib\inc\xmc_can.h ****  * A FIFO consists of one base object and n slave objects.
 472:D:\dholler\Dokumente\uni\bus\xmc\usbCanNode\Libraries\XMCLib\inc\xmc_can.h ****  */
 473:D:\dholler\Dokumente\uni\bus\xmc\usbCanNode\Libraries\XMCLib\inc\xmc_can.h **** typedef struct XMC_CAN_FIFO_CONFIG
 474:D:\dholler\Dokumente\uni\bus\xmc\usbCanNode\Libraries\XMCLib\inc\xmc_can.h **** {
 475:D:\dholler\Dokumente\uni\bus\xmc\usbCanNode\Libraries\XMCLib\inc\xmc_can.h ****   uint8_t fifo_bottom;		/**< points to the first element(slave object) in a FIFO structure.Range :0
 476:D:\dholler\Dokumente\uni\bus\xmc\usbCanNode\Libraries\XMCLib\inc\xmc_can.h ****   uint8_t fifo_top;			/**< points to the last element(slave object) in a FIFO structure. Range :0-6
 477:D:\dholler\Dokumente\uni\bus\xmc\usbCanNode\Libraries\XMCLib\inc\xmc_can.h ****   uint8_t fifo_base;		/**< points to the actual target object(Base object) within a FIFO/Gateway st
 478:D:\dholler\Dokumente\uni\bus\xmc\usbCanNode\Libraries\XMCLib\inc\xmc_can.h **** } XMC_CAN_FIFO_CONFIG_t;
 479:D:\dholler\Dokumente\uni\bus\xmc\usbCanNode\Libraries\XMCLib\inc\xmc_can.h **** 
 480:D:\dholler\Dokumente\uni\bus\xmc\usbCanNode\Libraries\XMCLib\inc\xmc_can.h **** /**
 481:D:\dholler\Dokumente\uni\bus\xmc\usbCanNode\Libraries\XMCLib\inc\xmc_can.h ****  * Defines CAN Gateway FIFO structure and provides additional options for gateway destination objec
 482:D:\dholler\Dokumente\uni\bus\xmc\usbCanNode\Libraries\XMCLib\inc\xmc_can.h ****  * Use type \a XMC_CAN_GATEWAY_CONFIG_t for this structure.
 483:D:\dholler\Dokumente\uni\bus\xmc\usbCanNode\Libraries\XMCLib\inc\xmc_can.h ****  */
 484:D:\dholler\Dokumente\uni\bus\xmc\usbCanNode\Libraries\XMCLib\inc\xmc_can.h **** typedef struct XMC_CAN_GATEWAY_CONFIG
 485:D:\dholler\Dokumente\uni\bus\xmc\usbCanNode\Libraries\XMCLib\inc\xmc_can.h **** {
 486:D:\dholler\Dokumente\uni\bus\xmc\usbCanNode\Libraries\XMCLib\inc\xmc_can.h ****   uint8_t gateway_bottom; 			/**< points to the first element(gateway destination object) in a FIFO
 487:D:\dholler\Dokumente\uni\bus\xmc\usbCanNode\Libraries\XMCLib\inc\xmc_can.h ****   uint8_t gateway_top;				/**< points to the last element(gateway destination object) in a FIFO str
 488:D:\dholler\Dokumente\uni\bus\xmc\usbCanNode\Libraries\XMCLib\inc\xmc_can.h ****   uint8_t gateway_base;				/**< points to the actual target object within a FIFO/Gateway structure.
 489:D:\dholler\Dokumente\uni\bus\xmc\usbCanNode\Libraries\XMCLib\inc\xmc_can.h ****   bool gateway_data_frame_send;		/**< TXRQ updated in the gateway destination object after the inte
 490:D:\dholler\Dokumente\uni\bus\xmc\usbCanNode\Libraries\XMCLib\inc\xmc_can.h ****   	  	  	  	  	  	  	  	  	  	 to the gateway destination object */
 491:D:\dholler\Dokumente\uni\bus\xmc\usbCanNode\Libraries\XMCLib\inc\xmc_can.h ****   bool gateway_identifier_copy;		/**< The identifier of the gateway source object (after storing th
 492:D:\dholler\Dokumente\uni\bus\xmc\usbCanNode\Libraries\XMCLib\inc\xmc_can.h ****   	  	  	  	  	  	  	  	  	  	 to the gateway destination object. */
 493:D:\dholler\Dokumente\uni\bus\xmc\usbCanNode\Libraries\XMCLib\inc\xmc_can.h **** 
 494:D:\dholler\Dokumente\uni\bus\xmc\usbCanNode\Libraries\XMCLib\inc\xmc_can.h ****   bool gateway_data_length_code_copy; /**< Data length code of the gateway source object (after sto
 495:D:\dholler\Dokumente\uni\bus\xmc\usbCanNode\Libraries\XMCLib\inc\xmc_can.h ****   	  	  	  	  	  	  	  	  	  	   gateway destination object */
 496:D:\dholler\Dokumente\uni\bus\xmc\usbCanNode\Libraries\XMCLib\inc\xmc_can.h ****   bool gateway_data_copy;  /**< Data fields in registers MODATALn and MODATAHn of the gateway sourc
 497:D:\dholler\Dokumente\uni\bus\xmc\usbCanNode\Libraries\XMCLib\inc\xmc_can.h ****   	  	  	  	  	  	  	  	are copied to the gateway destination.*/
 498:D:\dholler\Dokumente\uni\bus\xmc\usbCanNode\Libraries\XMCLib\inc\xmc_can.h **** 
 499:D:\dholler\Dokumente\uni\bus\xmc\usbCanNode\Libraries\XMCLib\inc\xmc_can.h **** } XMC_CAN_GATEWAY_CONFIG_t;
 500:D:\dholler\Dokumente\uni\bus\xmc\usbCanNode\Libraries\XMCLib\inc\xmc_can.h **** 
 501:D:\dholler\Dokumente\uni\bus\xmc\usbCanNode\Libraries\XMCLib\inc\xmc_can.h **** /**
 502:D:\dholler\Dokumente\uni\bus\xmc\usbCanNode\Libraries\XMCLib\inc\xmc_can.h **** * Defines CAN Global Initialization structure
 503:D:\dholler\Dokumente\uni\bus\xmc\usbCanNode\Libraries\XMCLib\inc\xmc_can.h **** */
 504:D:\dholler\Dokumente\uni\bus\xmc\usbCanNode\Libraries\XMCLib\inc\xmc_can.h **** typedef CAN_GLOBAL_TypeDef XMC_CAN_t;
 505:D:\dholler\Dokumente\uni\bus\xmc\usbCanNode\Libraries\XMCLib\inc\xmc_can.h **** 
 506:D:\dholler\Dokumente\uni\bus\xmc\usbCanNode\Libraries\XMCLib\inc\xmc_can.h **** /*Anonymous structure/union guard start*/
 507:D:\dholler\Dokumente\uni\bus\xmc\usbCanNode\Libraries\XMCLib\inc\xmc_can.h **** #if defined(__CC_ARM)
 508:D:\dholler\Dokumente\uni\bus\xmc\usbCanNode\Libraries\XMCLib\inc\xmc_can.h ****   #pragma push
 509:D:\dholler\Dokumente\uni\bus\xmc\usbCanNode\Libraries\XMCLib\inc\xmc_can.h ****   #pragma anon_unions
 510:D:\dholler\Dokumente\uni\bus\xmc\usbCanNode\Libraries\XMCLib\inc\xmc_can.h **** #elif defined(__TASKING__)
 511:D:\dholler\Dokumente\uni\bus\xmc\usbCanNode\Libraries\XMCLib\inc\xmc_can.h ****   #pragma warning 586
 512:D:\dholler\Dokumente\uni\bus\xmc\usbCanNode\Libraries\XMCLib\inc\xmc_can.h **** #endif
 513:D:\dholler\Dokumente\uni\bus\xmc\usbCanNode\Libraries\XMCLib\inc\xmc_can.h **** 
 514:D:\dholler\Dokumente\uni\bus\xmc\usbCanNode\Libraries\XMCLib\inc\xmc_can.h **** /**
 515:D:\dholler\Dokumente\uni\bus\xmc\usbCanNode\Libraries\XMCLib\inc\xmc_can.h ****  * Defines frame counter configuration. Use type \a XMC_CAN_NODE_FRAME_COUNTER_t for this structure
 516:D:\dholler\Dokumente\uni\bus\xmc\usbCanNode\Libraries\XMCLib\inc\xmc_can.h ****  * It provides configuration of frame counter that counts transmitted/received CAN frames or obtain
 517:D:\dholler\Dokumente\uni\bus\xmc\usbCanNode\Libraries\XMCLib\inc\xmc_can.h ****  * when a frame has been started to transmit or be received by the CAN node.
 518:D:\dholler\Dokumente\uni\bus\xmc\usbCanNode\Libraries\XMCLib\inc\xmc_can.h **** */
 519:D:\dholler\Dokumente\uni\bus\xmc\usbCanNode\Libraries\XMCLib\inc\xmc_can.h **** typedef struct XMC_CAN_NODE_FRAME_COUNTER
 520:D:\dholler\Dokumente\uni\bus\xmc\usbCanNode\Libraries\XMCLib\inc\xmc_can.h **** {
 521:D:\dholler\Dokumente\uni\bus\xmc\usbCanNode\Libraries\XMCLib\inc\xmc_can.h **** 
 522:D:\dholler\Dokumente\uni\bus\xmc\usbCanNode\Libraries\XMCLib\inc\xmc_can.h ****   union{
 523:D:\dholler\Dokumente\uni\bus\xmc\usbCanNode\Libraries\XMCLib\inc\xmc_can.h **** 	  struct{
 524:D:\dholler\Dokumente\uni\bus\xmc\usbCanNode\Libraries\XMCLib\inc\xmc_can.h **** 		  uint32_t : 16;
 525:D:\dholler\Dokumente\uni\bus\xmc\usbCanNode\Libraries\XMCLib\inc\xmc_can.h **** 		  uint32_t can_frame_count_selection:3;		/**<   Defines function of the frame counter  */
 526:D:\dholler\Dokumente\uni\bus\xmc\usbCanNode\Libraries\XMCLib\inc\xmc_can.h **** 		  uint32_t can_frame_count_mode:2;			/**<   Determines the operation mode of the frame counter */
 527:D:\dholler\Dokumente\uni\bus\xmc\usbCanNode\Libraries\XMCLib\inc\xmc_can.h **** 		  uint32_t : 11;
 528:D:\dholler\Dokumente\uni\bus\xmc\usbCanNode\Libraries\XMCLib\inc\xmc_can.h **** 	  };
 529:D:\dholler\Dokumente\uni\bus\xmc\usbCanNode\Libraries\XMCLib\inc\xmc_can.h **** 	  uint32_t nfcr;
 530:D:\dholler\Dokumente\uni\bus\xmc\usbCanNode\Libraries\XMCLib\inc\xmc_can.h **** 
 531:D:\dholler\Dokumente\uni\bus\xmc\usbCanNode\Libraries\XMCLib\inc\xmc_can.h ****   };
 532:D:\dholler\Dokumente\uni\bus\xmc\usbCanNode\Libraries\XMCLib\inc\xmc_can.h **** } XMC_CAN_NODE_FRAME_COUNTER_t;
 533:D:\dholler\Dokumente\uni\bus\xmc\usbCanNode\Libraries\XMCLib\inc\xmc_can.h **** 
 534:D:\dholler\Dokumente\uni\bus\xmc\usbCanNode\Libraries\XMCLib\inc\xmc_can.h **** /**
 535:D:\dholler\Dokumente\uni\bus\xmc\usbCanNode\Libraries\XMCLib\inc\xmc_can.h ****  *Defines Node Runtime structure.
 536:D:\dholler\Dokumente\uni\bus\xmc\usbCanNode\Libraries\XMCLib\inc\xmc_can.h **** */
 537:D:\dholler\Dokumente\uni\bus\xmc\usbCanNode\Libraries\XMCLib\inc\xmc_can.h **** typedef CAN_NODE_TypeDef  XMC_CAN_NODE_t;            /**<  pointer to the Node CAN register */
 538:D:\dholler\Dokumente\uni\bus\xmc\usbCanNode\Libraries\XMCLib\inc\xmc_can.h **** 
 539:D:\dholler\Dokumente\uni\bus\xmc\usbCanNode\Libraries\XMCLib\inc\xmc_can.h **** /**
 540:D:\dholler\Dokumente\uni\bus\xmc\usbCanNode\Libraries\XMCLib\inc\xmc_can.h ****  * Defines CAN Message Object runtime elements. Use type \a XMC_CAN_MO_t for this structure.
 541:D:\dholler\Dokumente\uni\bus\xmc\usbCanNode\Libraries\XMCLib\inc\xmc_can.h ****  */
 542:D:\dholler\Dokumente\uni\bus\xmc\usbCanNode\Libraries\XMCLib\inc\xmc_can.h **** typedef struct XMC_CAN_MO
 543:D:\dholler\Dokumente\uni\bus\xmc\usbCanNode\Libraries\XMCLib\inc\xmc_can.h **** {
 544:D:\dholler\Dokumente\uni\bus\xmc\usbCanNode\Libraries\XMCLib\inc\xmc_can.h **** 	CAN_MO_TypeDef *can_mo_ptr;                     /**< Pointer to the Message Object CAN register */
 545:D:\dholler\Dokumente\uni\bus\xmc\usbCanNode\Libraries\XMCLib\inc\xmc_can.h **** 	union{
 546:D:\dholler\Dokumente\uni\bus\xmc\usbCanNode\Libraries\XMCLib\inc\xmc_can.h **** 		struct{
 547:D:\dholler\Dokumente\uni\bus\xmc\usbCanNode\Libraries\XMCLib\inc\xmc_can.h **** 			uint32_t can_identifier:29;            /**< standard (11 bit)/Extended (29 bit) message identifi
 548:D:\dholler\Dokumente\uni\bus\xmc\usbCanNode\Libraries\XMCLib\inc\xmc_can.h **** 			uint32_t can_id_mode:1;                /**< Standard/Extended identifier support */
 549:D:\dholler\Dokumente\uni\bus\xmc\usbCanNode\Libraries\XMCLib\inc\xmc_can.h **** 			uint32_t can_priority:2;               /**< Arbitration Mode/Priority */
 550:D:\dholler\Dokumente\uni\bus\xmc\usbCanNode\Libraries\XMCLib\inc\xmc_can.h **** 		};
 551:D:\dholler\Dokumente\uni\bus\xmc\usbCanNode\Libraries\XMCLib\inc\xmc_can.h **** 		uint32_t mo_ar;
 552:D:\dholler\Dokumente\uni\bus\xmc\usbCanNode\Libraries\XMCLib\inc\xmc_can.h **** 	};
 553:D:\dholler\Dokumente\uni\bus\xmc\usbCanNode\Libraries\XMCLib\inc\xmc_can.h **** 	union{
 554:D:\dholler\Dokumente\uni\bus\xmc\usbCanNode\Libraries\XMCLib\inc\xmc_can.h **** 		struct{
 555:D:\dholler\Dokumente\uni\bus\xmc\usbCanNode\Libraries\XMCLib\inc\xmc_can.h **** 			uint32_t can_id_mask:29;              /**< CAN Identifier of Message Object */
 556:D:\dholler\Dokumente\uni\bus\xmc\usbCanNode\Libraries\XMCLib\inc\xmc_can.h **** 			uint32_t can_ide_mask:1;              /**< Identifier Extension Bit of Message Object */
 557:D:\dholler\Dokumente\uni\bus\xmc\usbCanNode\Libraries\XMCLib\inc\xmc_can.h **** 		};
 558:D:\dholler\Dokumente\uni\bus\xmc\usbCanNode\Libraries\XMCLib\inc\xmc_can.h **** 		uint32_t mo_amr;
 559:D:\dholler\Dokumente\uni\bus\xmc\usbCanNode\Libraries\XMCLib\inc\xmc_can.h **** 	};
 560:D:\dholler\Dokumente\uni\bus\xmc\usbCanNode\Libraries\XMCLib\inc\xmc_can.h ****   uint8_t can_data_length;                        /**< Message data length, Range:0-8 */
 561:D:\dholler\Dokumente\uni\bus\xmc\usbCanNode\Libraries\XMCLib\inc\xmc_can.h **** 
 562:D:\dholler\Dokumente\uni\bus\xmc\usbCanNode\Libraries\XMCLib\inc\xmc_can.h ****   union{
 563:D:\dholler\Dokumente\uni\bus\xmc\usbCanNode\Libraries\XMCLib\inc\xmc_can.h **** 
 564:D:\dholler\Dokumente\uni\bus\xmc\usbCanNode\Libraries\XMCLib\inc\xmc_can.h ****   		uint8_t can_data_byte[8];                 /**< Each position of the array represents a data byt
 565:D:\dholler\Dokumente\uni\bus\xmc\usbCanNode\Libraries\XMCLib\inc\xmc_can.h ****   		uint16_t can_data_word[4];                /**< Each position of the array represents a 16 bits 
 566:D:\dholler\Dokumente\uni\bus\xmc\usbCanNode\Libraries\XMCLib\inc\xmc_can.h ****   		uint32_t can_data[2];                     /**< can_data[0] lower 4 bytes of the data. can_data[
 567:D:\dholler\Dokumente\uni\bus\xmc\usbCanNode\Libraries\XMCLib\inc\xmc_can.h ****   		 	 	 	 	 	 	 	 	 	 	    of the data */
 568:D:\dholler\Dokumente\uni\bus\xmc\usbCanNode\Libraries\XMCLib\inc\xmc_can.h ****   		uint64_t can_data_long;                   /** Data of the Message Object*/
 569:D:\dholler\Dokumente\uni\bus\xmc\usbCanNode\Libraries\XMCLib\inc\xmc_can.h ****   	  };
 570:D:\dholler\Dokumente\uni\bus\xmc\usbCanNode\Libraries\XMCLib\inc\xmc_can.h **** 
 571:D:\dholler\Dokumente\uni\bus\xmc\usbCanNode\Libraries\XMCLib\inc\xmc_can.h ****   XMC_CAN_MO_TYPE_t can_mo_type;                  /**<  Message Type */
 572:D:\dholler\Dokumente\uni\bus\xmc\usbCanNode\Libraries\XMCLib\inc\xmc_can.h **** 
 573:D:\dholler\Dokumente\uni\bus\xmc\usbCanNode\Libraries\XMCLib\inc\xmc_can.h **** } XMC_CAN_MO_t;
 574:D:\dholler\Dokumente\uni\bus\xmc\usbCanNode\Libraries\XMCLib\inc\xmc_can.h **** /*Anonymous structure/union guard end*/
 575:D:\dholler\Dokumente\uni\bus\xmc\usbCanNode\Libraries\XMCLib\inc\xmc_can.h **** #if defined(__CC_ARM)
 576:D:\dholler\Dokumente\uni\bus\xmc\usbCanNode\Libraries\XMCLib\inc\xmc_can.h ****   #pragma pop
 577:D:\dholler\Dokumente\uni\bus\xmc\usbCanNode\Libraries\XMCLib\inc\xmc_can.h **** #elif defined(__TASKING__)
 578:D:\dholler\Dokumente\uni\bus\xmc\usbCanNode\Libraries\XMCLib\inc\xmc_can.h ****   #pragma warning restore
 579:D:\dholler\Dokumente\uni\bus\xmc\usbCanNode\Libraries\XMCLib\inc\xmc_can.h **** #endif
 580:D:\dholler\Dokumente\uni\bus\xmc\usbCanNode\Libraries\XMCLib\inc\xmc_can.h **** /**************************************************************************************************
 581:D:\dholler\Dokumente\uni\bus\xmc\usbCanNode\Libraries\XMCLib\inc\xmc_can.h ****  * API Prototypes
 582:D:\dholler\Dokumente\uni\bus\xmc\usbCanNode\Libraries\XMCLib\inc\xmc_can.h ****  **************************************************************************************************
 583:D:\dholler\Dokumente\uni\bus\xmc\usbCanNode\Libraries\XMCLib\inc\xmc_can.h **** #ifdef __cplusplus
 584:D:\dholler\Dokumente\uni\bus\xmc\usbCanNode\Libraries\XMCLib\inc\xmc_can.h **** extern "C" {
 585:D:\dholler\Dokumente\uni\bus\xmc\usbCanNode\Libraries\XMCLib\inc\xmc_can.h **** #endif
 586:D:\dholler\Dokumente\uni\bus\xmc\usbCanNode\Libraries\XMCLib\inc\xmc_can.h **** 
 587:D:\dholler\Dokumente\uni\bus\xmc\usbCanNode\Libraries\XMCLib\inc\xmc_can.h **** /**
 588:D:\dholler\Dokumente\uni\bus\xmc\usbCanNode\Libraries\XMCLib\inc\xmc_can.h ****  *
 589:D:\dholler\Dokumente\uni\bus\xmc\usbCanNode\Libraries\XMCLib\inc\xmc_can.h ****  * @param obj	Pointer pointing to XMC_CAN Global Initialization structure. Defines CAN global regis
 590:D:\dholler\Dokumente\uni\bus\xmc\usbCanNode\Libraries\XMCLib\inc\xmc_can.h ****  * 				for details.
 591:D:\dholler\Dokumente\uni\bus\xmc\usbCanNode\Libraries\XMCLib\inc\xmc_can.h ****  *
 592:D:\dholler\Dokumente\uni\bus\xmc\usbCanNode\Libraries\XMCLib\inc\xmc_can.h ****  * @return None
 593:D:\dholler\Dokumente\uni\bus\xmc\usbCanNode\Libraries\XMCLib\inc\xmc_can.h ****  *
 594:D:\dholler\Dokumente\uni\bus\xmc\usbCanNode\Libraries\XMCLib\inc\xmc_can.h ****  * \par<b>Description:</b><br>
 595:D:\dholler\Dokumente\uni\bus\xmc\usbCanNode\Libraries\XMCLib\inc\xmc_can.h ****  *  Disables CAN module. In disabled state, no registers of CAN module can be read or written excep
 596:D:\dholler\Dokumente\uni\bus\xmc\usbCanNode\Libraries\XMCLib\inc\xmc_can.h ****  *
 597:D:\dholler\Dokumente\uni\bus\xmc\usbCanNode\Libraries\XMCLib\inc\xmc_can.h ****  * \par<b>Related APIs:</b><BR>
 598:D:\dholler\Dokumente\uni\bus\xmc\usbCanNode\Libraries\XMCLib\inc\xmc_can.h ****  * XMC_CAN_Enable()\n\n\n
 599:D:\dholler\Dokumente\uni\bus\xmc\usbCanNode\Libraries\XMCLib\inc\xmc_can.h ****  *
 600:D:\dholler\Dokumente\uni\bus\xmc\usbCanNode\Libraries\XMCLib\inc\xmc_can.h ****  */
 601:D:\dholler\Dokumente\uni\bus\xmc\usbCanNode\Libraries\XMCLib\inc\xmc_can.h **** 
 602:D:\dholler\Dokumente\uni\bus\xmc\usbCanNode\Libraries\XMCLib\inc\xmc_can.h **** void XMC_CAN_Disable(XMC_CAN_t *const obj);
 603:D:\dholler\Dokumente\uni\bus\xmc\usbCanNode\Libraries\XMCLib\inc\xmc_can.h **** 
 604:D:\dholler\Dokumente\uni\bus\xmc\usbCanNode\Libraries\XMCLib\inc\xmc_can.h **** /**
 605:D:\dholler\Dokumente\uni\bus\xmc\usbCanNode\Libraries\XMCLib\inc\xmc_can.h ****  *
 606:D:\dholler\Dokumente\uni\bus\xmc\usbCanNode\Libraries\XMCLib\inc\xmc_can.h ****  * @param obj Pointer pointing to XMC_CAN Global Initialization structure. Defines CAN global regis
 607:D:\dholler\Dokumente\uni\bus\xmc\usbCanNode\Libraries\XMCLib\inc\xmc_can.h ****  * 			   for details.
 608:D:\dholler\Dokumente\uni\bus\xmc\usbCanNode\Libraries\XMCLib\inc\xmc_can.h ****  *
 609:D:\dholler\Dokumente\uni\bus\xmc\usbCanNode\Libraries\XMCLib\inc\xmc_can.h ****  * @return None
 610:D:\dholler\Dokumente\uni\bus\xmc\usbCanNode\Libraries\XMCLib\inc\xmc_can.h ****  *
 611:D:\dholler\Dokumente\uni\bus\xmc\usbCanNode\Libraries\XMCLib\inc\xmc_can.h ****  * \par<b>Description:</b><br>
 612:D:\dholler\Dokumente\uni\bus\xmc\usbCanNode\Libraries\XMCLib\inc\xmc_can.h ****  *  Enables CAN module and initializes all CAN registers to reset values. It is required to re-conf
 613:D:\dholler\Dokumente\uni\bus\xmc\usbCanNode\Libraries\XMCLib\inc\xmc_can.h ****  *  before any data transfer. It configures CAN_CLC.DISR bit.
 614:D:\dholler\Dokumente\uni\bus\xmc\usbCanNode\Libraries\XMCLib\inc\xmc_can.h ****  *
 615:D:\dholler\Dokumente\uni\bus\xmc\usbCanNode\Libraries\XMCLib\inc\xmc_can.h ****  * \par<b>Related APIs:</b><BR>
 616:D:\dholler\Dokumente\uni\bus\xmc\usbCanNode\Libraries\XMCLib\inc\xmc_can.h ****  *  XMC_CAN_Disable()\n\n\n
 617:D:\dholler\Dokumente\uni\bus\xmc\usbCanNode\Libraries\XMCLib\inc\xmc_can.h ****  *
 618:D:\dholler\Dokumente\uni\bus\xmc\usbCanNode\Libraries\XMCLib\inc\xmc_can.h ****  */
 619:D:\dholler\Dokumente\uni\bus\xmc\usbCanNode\Libraries\XMCLib\inc\xmc_can.h **** 
 620:D:\dholler\Dokumente\uni\bus\xmc\usbCanNode\Libraries\XMCLib\inc\xmc_can.h **** void XMC_CAN_Enable(XMC_CAN_t *const obj);
 621:D:\dholler\Dokumente\uni\bus\xmc\usbCanNode\Libraries\XMCLib\inc\xmc_can.h **** 
 622:D:\dholler\Dokumente\uni\bus\xmc\usbCanNode\Libraries\XMCLib\inc\xmc_can.h **** /**
 623:D:\dholler\Dokumente\uni\bus\xmc\usbCanNode\Libraries\XMCLib\inc\xmc_can.h ****  *
 624:D:\dholler\Dokumente\uni\bus\xmc\usbCanNode\Libraries\XMCLib\inc\xmc_can.h ****  * @param obj Pointer pointing to XMC_CAN Global Initialization structure. Defines CAN global regis
 625:D:\dholler\Dokumente\uni\bus\xmc\usbCanNode\Libraries\XMCLib\inc\xmc_can.h ****  * 		   for details.
 626:D:\dholler\Dokumente\uni\bus\xmc\usbCanNode\Libraries\XMCLib\inc\xmc_can.h ****  *
 627:D:\dholler\Dokumente\uni\bus\xmc\usbCanNode\Libraries\XMCLib\inc\xmc_can.h ****  * @param node_num	CAN node number,Range : 0-2
 628:D:\dholler\Dokumente\uni\bus\xmc\usbCanNode\Libraries\XMCLib\inc\xmc_can.h ****  * @param mo_num 	CAN Message Object number,Range : 0-63
 629:D:\dholler\Dokumente\uni\bus\xmc\usbCanNode\Libraries\XMCLib\inc\xmc_can.h ****  *
 630:D:\dholler\Dokumente\uni\bus\xmc\usbCanNode\Libraries\XMCLib\inc\xmc_can.h ****  * @return None
 631:D:\dholler\Dokumente\uni\bus\xmc\usbCanNode\Libraries\XMCLib\inc\xmc_can.h ****  *
 632:D:\dholler\Dokumente\uni\bus\xmc\usbCanNode\Libraries\XMCLib\inc\xmc_can.h ****  * \par<b>Description:</b><br>
 633:D:\dholler\Dokumente\uni\bus\xmc\usbCanNode\Libraries\XMCLib\inc\xmc_can.h ****  *  Allocates Message Object from free list to node list. Each \a node_num is linked to one unique 
 634:D:\dholler\Dokumente\uni\bus\xmc\usbCanNode\Libraries\XMCLib\inc\xmc_can.h ****  *  A CAN node performs message transfer only with the \a mo_num message objects that are allocated
 635:D:\dholler\Dokumente\uni\bus\xmc\usbCanNode\Libraries\XMCLib\inc\xmc_can.h ****  *  It configures PANCTR register.
 636:D:\dholler\Dokumente\uni\bus\xmc\usbCanNode\Libraries\XMCLib\inc\xmc_can.h ****  *
 637:D:\dholler\Dokumente\uni\bus\xmc\usbCanNode\Libraries\XMCLib\inc\xmc_can.h ****  * \par<b>Related APIs:</b><BR>
 638:D:\dholler\Dokumente\uni\bus\xmc\usbCanNode\Libraries\XMCLib\inc\xmc_can.h ****  *  None
 639:D:\dholler\Dokumente\uni\bus\xmc\usbCanNode\Libraries\XMCLib\inc\xmc_can.h ****  *
 640:D:\dholler\Dokumente\uni\bus\xmc\usbCanNode\Libraries\XMCLib\inc\xmc_can.h ****  */
 641:D:\dholler\Dokumente\uni\bus\xmc\usbCanNode\Libraries\XMCLib\inc\xmc_can.h **** 
 642:D:\dholler\Dokumente\uni\bus\xmc\usbCanNode\Libraries\XMCLib\inc\xmc_can.h **** void XMC_CAN_AllocateMOtoNodeList(XMC_CAN_t *const obj, const uint8_t node_num, const uint8_t mo_nu
 643:D:\dholler\Dokumente\uni\bus\xmc\usbCanNode\Libraries\XMCLib\inc\xmc_can.h **** 
 644:D:\dholler\Dokumente\uni\bus\xmc\usbCanNode\Libraries\XMCLib\inc\xmc_can.h **** /**
 645:D:\dholler\Dokumente\uni\bus\xmc\usbCanNode\Libraries\XMCLib\inc\xmc_can.h ****  *
 646:D:\dholler\Dokumente\uni\bus\xmc\usbCanNode\Libraries\XMCLib\inc\xmc_can.h ****  * @param obj Pointer pointing to XMC_CAN Global Initialization structure. Defines CAN global regis
 647:D:\dholler\Dokumente\uni\bus\xmc\usbCanNode\Libraries\XMCLib\inc\xmc_can.h ****  * 			  for details.
 648:D:\dholler\Dokumente\uni\bus\xmc\usbCanNode\Libraries\XMCLib\inc\xmc_can.h ****  *
 649:D:\dholler\Dokumente\uni\bus\xmc\usbCanNode\Libraries\XMCLib\inc\xmc_can.h ****  * @param pancmd panal command selection. Refer @ref XMC_CAN_PANCMD_t for valid values.
 650:D:\dholler\Dokumente\uni\bus\xmc\usbCanNode\Libraries\XMCLib\inc\xmc_can.h ****  * @param arg1	 Panel Argument 1,Range : 0-2
 651:D:\dholler\Dokumente\uni\bus\xmc\usbCanNode\Libraries\XMCLib\inc\xmc_can.h ****  * @param arg2 	 Panel Argument 2, Range : 0-63
 652:D:\dholler\Dokumente\uni\bus\xmc\usbCanNode\Libraries\XMCLib\inc\xmc_can.h ****  *
 653:D:\dholler\Dokumente\uni\bus\xmc\usbCanNode\Libraries\XMCLib\inc\xmc_can.h ****  * @return None
 654:D:\dholler\Dokumente\uni\bus\xmc\usbCanNode\Libraries\XMCLib\inc\xmc_can.h ****  *
 655:D:\dholler\Dokumente\uni\bus\xmc\usbCanNode\Libraries\XMCLib\inc\xmc_can.h ****  * \par<b>Description:</b><br>
 656:D:\dholler\Dokumente\uni\bus\xmc\usbCanNode\Libraries\XMCLib\inc\xmc_can.h ****  *  Configures the panel command and panel arguments. A panel operation consists of a command code 
 657:D:\dholler\Dokumente\uni\bus\xmc\usbCanNode\Libraries\XMCLib\inc\xmc_can.h ****  *  panel arguments (PANAR1, PANAR2). Commands that have a return value deliver it to the PANAR1 bi
 658:D:\dholler\Dokumente\uni\bus\xmc\usbCanNode\Libraries\XMCLib\inc\xmc_can.h ****  *  return an error flag deliver it to bit 31 of the Panel Control Register, this means bit 7 of PA
 659:D:\dholler\Dokumente\uni\bus\xmc\usbCanNode\Libraries\XMCLib\inc\xmc_can.h ****  *  panel argument PANAR1,\a arg2 represents panel argument PANAR2 and \a pancmd represents command
 660:D:\dholler\Dokumente\uni\bus\xmc\usbCanNode\Libraries\XMCLib\inc\xmc_can.h ****  *  register.
 661:D:\dholler\Dokumente\uni\bus\xmc\usbCanNode\Libraries\XMCLib\inc\xmc_can.h ****  *
 662:D:\dholler\Dokumente\uni\bus\xmc\usbCanNode\Libraries\XMCLib\inc\xmc_can.h ****  * \par<b>Related APIs:</b><BR>
 663:D:\dholler\Dokumente\uni\bus\xmc\usbCanNode\Libraries\XMCLib\inc\xmc_can.h ****  *  None
 664:D:\dholler\Dokumente\uni\bus\xmc\usbCanNode\Libraries\XMCLib\inc\xmc_can.h ****  *
 665:D:\dholler\Dokumente\uni\bus\xmc\usbCanNode\Libraries\XMCLib\inc\xmc_can.h ****  */
 666:D:\dholler\Dokumente\uni\bus\xmc\usbCanNode\Libraries\XMCLib\inc\xmc_can.h **** 
 667:D:\dholler\Dokumente\uni\bus\xmc\usbCanNode\Libraries\XMCLib\inc\xmc_can.h **** __STATIC_INLINE void XMC_CAN_PanelControl(XMC_CAN_t *const obj,
 668:D:\dholler\Dokumente\uni\bus\xmc\usbCanNode\Libraries\XMCLib\inc\xmc_can.h ****                                           const XMC_CAN_PANCMD_t pancmd,
 669:D:\dholler\Dokumente\uni\bus\xmc\usbCanNode\Libraries\XMCLib\inc\xmc_can.h **** 		                                  const uint8_t arg1,
 670:D:\dholler\Dokumente\uni\bus\xmc\usbCanNode\Libraries\XMCLib\inc\xmc_can.h **** 		                                  const uint8_t arg2)
 671:D:\dholler\Dokumente\uni\bus\xmc\usbCanNode\Libraries\XMCLib\inc\xmc_can.h **** {
  27              	 .loc 1 671 0
  28              	 .cfi_startproc
  29              	 
  30              	 
  31              	 
  32 0000 80B4     	 push {r7}
  33              	.LCFI0:
  34              	 .cfi_def_cfa_offset 4
  35              	 .cfi_offset 7,-4
  36 0002 83B0     	 sub sp,sp,#12
  37              	.LCFI1:
  38              	 .cfi_def_cfa_offset 16
  39 0004 00AF     	 add r7,sp,#0
  40              	.LCFI2:
  41              	 .cfi_def_cfa_register 7
  42 0006 7860     	 str r0,[r7,#4]
  43 0008 0846     	 mov r0,r1
  44 000a 1146     	 mov r1,r2
  45 000c 1A46     	 mov r2,r3
  46 000e 0346     	 mov r3,r0
  47 0010 FB70     	 strb r3,[r7,#3]
  48 0012 0B46     	 mov r3,r1
  49 0014 BB70     	 strb r3,[r7,#2]
  50 0016 1346     	 mov r3,r2
  51 0018 7B70     	 strb r3,[r7,#1]
 672:D:\dholler\Dokumente\uni\bus\xmc\usbCanNode\Libraries\XMCLib\inc\xmc_can.h ****   obj->PANCTR = (((uint32_t)pancmd << CAN_PANCTR_PANCMD_Pos) & (uint32_t)CAN_PANCTR_PANCMD_Msk) |
  52              	 .loc 1 672 0
  53 001a FA78     	 ldrb r2,[r7,#3]
 673:D:\dholler\Dokumente\uni\bus\xmc\usbCanNode\Libraries\XMCLib\inc\xmc_can.h **** 		        (((uint32_t)arg1 << CAN_PANCTR_PANAR1_Pos) & (uint32_t)CAN_PANCTR_PANAR1_Msk) |
  54              	 .loc 1 673 0
  55 001c BB78     	 ldrb r3,[r7,#2]
  56 001e 1B04     	 lsls r3,r3,#16
  57 0020 03F47F03 	 and r3,r3,#16711680
 672:D:\dholler\Dokumente\uni\bus\xmc\usbCanNode\Libraries\XMCLib\inc\xmc_can.h ****   obj->PANCTR = (((uint32_t)pancmd << CAN_PANCTR_PANCMD_Pos) & (uint32_t)CAN_PANCTR_PANCMD_Msk) |
  58              	 .loc 1 672 0
  59 0024 1A43     	 orrs r2,r2,r3
 674:D:\dholler\Dokumente\uni\bus\xmc\usbCanNode\Libraries\XMCLib\inc\xmc_can.h **** 		        (((uint32_t)arg2 << CAN_PANCTR_PANAR2_Pos) & (uint32_t)CAN_PANCTR_PANAR2_Msk);
  60              	 .loc 1 674 0
  61 0026 7B78     	 ldrb r3,[r7,#1]
  62 0028 1B06     	 lsls r3,r3,#24
 673:D:\dholler\Dokumente\uni\bus\xmc\usbCanNode\Libraries\XMCLib\inc\xmc_can.h **** 		        (((uint32_t)arg1 << CAN_PANCTR_PANAR1_Pos) & (uint32_t)CAN_PANCTR_PANAR1_Msk) |
  63              	 .loc 1 673 0
  64 002a 1A43     	 orrs r2,r2,r3
 672:D:\dholler\Dokumente\uni\bus\xmc\usbCanNode\Libraries\XMCLib\inc\xmc_can.h ****   obj->PANCTR = (((uint32_t)pancmd << CAN_PANCTR_PANCMD_Pos) & (uint32_t)CAN_PANCTR_PANCMD_Msk) |
  65              	 .loc 1 672 0
  66 002c 7B68     	 ldr r3,[r7,#4]
  67 002e C3F8C421 	 str r2,[r3,#452]
 675:D:\dholler\Dokumente\uni\bus\xmc\usbCanNode\Libraries\XMCLib\inc\xmc_can.h **** }
  68              	 .loc 1 675 0
  69 0032 0C37     	 adds r7,r7,#12
  70              	.LCFI3:
  71              	 .cfi_def_cfa_offset 4
  72 0034 BD46     	 mov sp,r7
  73              	.LCFI4:
  74              	 .cfi_def_cfa_register 13
  75              	 
  76 0036 5DF8047B 	 ldr r7,[sp],#4
  77              	.LCFI5:
  78              	 .cfi_restore 7
  79              	 .cfi_def_cfa_offset 0
  80 003a 7047     	 bx lr
  81              	 .cfi_endproc
  82              	.LFE153:
  84              	 .section .text.XMC_CAN_NODE_EnableConfigurationChange,"ax",%progbits
  85              	 .align 2
  86              	 .thumb
  87              	 .thumb_func
  89              	XMC_CAN_NODE_EnableConfigurationChange:
  90              	.LFB169:
 676:D:\dholler\Dokumente\uni\bus\xmc\usbCanNode\Libraries\XMCLib\inc\xmc_can.h **** 
 677:D:\dholler\Dokumente\uni\bus\xmc\usbCanNode\Libraries\XMCLib\inc\xmc_can.h **** 
 678:D:\dholler\Dokumente\uni\bus\xmc\usbCanNode\Libraries\XMCLib\inc\xmc_can.h **** /**
 679:D:\dholler\Dokumente\uni\bus\xmc\usbCanNode\Libraries\XMCLib\inc\xmc_can.h ****  *
 680:D:\dholler\Dokumente\uni\bus\xmc\usbCanNode\Libraries\XMCLib\inc\xmc_can.h ****  * @param obj Pointer pointing to XMC_CAN Global Initialization structure. Defines CAN global regis
 681:D:\dholler\Dokumente\uni\bus\xmc\usbCanNode\Libraries\XMCLib\inc\xmc_can.h ****  * 			  for details.
 682:D:\dholler\Dokumente\uni\bus\xmc\usbCanNode\Libraries\XMCLib\inc\xmc_can.h ****  *
 683:D:\dholler\Dokumente\uni\bus\xmc\usbCanNode\Libraries\XMCLib\inc\xmc_can.h ****  * @param service_requestr	Interrupt trigger number selection. Refer @ref XMC_CAN_NODE_INTERRUPT_TR
 684:D:\dholler\Dokumente\uni\bus\xmc\usbCanNode\Libraries\XMCLib\inc\xmc_can.h ****  * 							 Multiple interrupt trigger events can be ORed.
 685:D:\dholler\Dokumente\uni\bus\xmc\usbCanNode\Libraries\XMCLib\inc\xmc_can.h ****  *
 686:D:\dholler\Dokumente\uni\bus\xmc\usbCanNode\Libraries\XMCLib\inc\xmc_can.h ****  * @return None
 687:D:\dholler\Dokumente\uni\bus\xmc\usbCanNode\Libraries\XMCLib\inc\xmc_can.h ****  *
 688:D:\dholler\Dokumente\uni\bus\xmc\usbCanNode\Libraries\XMCLib\inc\xmc_can.h ****  * \par<b>Description:</b><br>
 689:D:\dholler\Dokumente\uni\bus\xmc\usbCanNode\Libraries\XMCLib\inc\xmc_can.h ****  *  Configures multiple interrupt requests with a single write operation. \a service_requestr repre
 690:D:\dholler\Dokumente\uni\bus\xmc\usbCanNode\Libraries\XMCLib\inc\xmc_can.h ****  *  request or multiple.It configures MITR register.
 691:D:\dholler\Dokumente\uni\bus\xmc\usbCanNode\Libraries\XMCLib\inc\xmc_can.h ****  *
 692:D:\dholler\Dokumente\uni\bus\xmc\usbCanNode\Libraries\XMCLib\inc\xmc_can.h ****  * \par<b>Related APIs:</b><BR>
 693:D:\dholler\Dokumente\uni\bus\xmc\usbCanNode\Libraries\XMCLib\inc\xmc_can.h ****  *  None
 694:D:\dholler\Dokumente\uni\bus\xmc\usbCanNode\Libraries\XMCLib\inc\xmc_can.h ****  *
 695:D:\dholler\Dokumente\uni\bus\xmc\usbCanNode\Libraries\XMCLib\inc\xmc_can.h ****  */
 696:D:\dholler\Dokumente\uni\bus\xmc\usbCanNode\Libraries\XMCLib\inc\xmc_can.h **** 
 697:D:\dholler\Dokumente\uni\bus\xmc\usbCanNode\Libraries\XMCLib\inc\xmc_can.h **** __STATIC_INLINE void XMC_CAN_EventTrigger(XMC_CAN_t *const obj,const XMC_CAN_NODE_INTERRUPT_TRIGGER
 698:D:\dholler\Dokumente\uni\bus\xmc\usbCanNode\Libraries\XMCLib\inc\xmc_can.h **** {
 699:D:\dholler\Dokumente\uni\bus\xmc\usbCanNode\Libraries\XMCLib\inc\xmc_can.h ****   obj->MITR = ((uint32_t)service_requestr << CAN_MITR_IT_Pos) & (uint32_t)CAN_MITR_IT_Msk;
 700:D:\dholler\Dokumente\uni\bus\xmc\usbCanNode\Libraries\XMCLib\inc\xmc_can.h **** }
 701:D:\dholler\Dokumente\uni\bus\xmc\usbCanNode\Libraries\XMCLib\inc\xmc_can.h **** 
 702:D:\dholler\Dokumente\uni\bus\xmc\usbCanNode\Libraries\XMCLib\inc\xmc_can.h **** 
 703:D:\dholler\Dokumente\uni\bus\xmc\usbCanNode\Libraries\XMCLib\inc\xmc_can.h **** 
 704:D:\dholler\Dokumente\uni\bus\xmc\usbCanNode\Libraries\XMCLib\inc\xmc_can.h **** 								/*INIT APIs*/
 705:D:\dholler\Dokumente\uni\bus\xmc\usbCanNode\Libraries\XMCLib\inc\xmc_can.h **** 
 706:D:\dholler\Dokumente\uni\bus\xmc\usbCanNode\Libraries\XMCLib\inc\xmc_can.h **** /**
 707:D:\dholler\Dokumente\uni\bus\xmc\usbCanNode\Libraries\XMCLib\inc\xmc_can.h ****  *
 708:D:\dholler\Dokumente\uni\bus\xmc\usbCanNode\Libraries\XMCLib\inc\xmc_can.h ****  * @param obj Pointer pointing to XMC_CAN Global Initialization structure. Defines CAN global regis
 709:D:\dholler\Dokumente\uni\bus\xmc\usbCanNode\Libraries\XMCLib\inc\xmc_can.h ****  * 			  for details.
 710:D:\dholler\Dokumente\uni\bus\xmc\usbCanNode\Libraries\XMCLib\inc\xmc_can.h ****  *
 711:D:\dholler\Dokumente\uni\bus\xmc\usbCanNode\Libraries\XMCLib\inc\xmc_can.h ****  * @param can_frequency	CAN module frequency(fCAN). Range : 5MHz to 120MHz
 712:D:\dholler\Dokumente\uni\bus\xmc\usbCanNode\Libraries\XMCLib\inc\xmc_can.h ****  *
 713:D:\dholler\Dokumente\uni\bus\xmc\usbCanNode\Libraries\XMCLib\inc\xmc_can.h ****  * @return None
 714:D:\dholler\Dokumente\uni\bus\xmc\usbCanNode\Libraries\XMCLib\inc\xmc_can.h ****  *
 715:D:\dholler\Dokumente\uni\bus\xmc\usbCanNode\Libraries\XMCLib\inc\xmc_can.h ****  * \par<b>Description:</b><br>
 716:D:\dholler\Dokumente\uni\bus\xmc\usbCanNode\Libraries\XMCLib\inc\xmc_can.h ****  * Configures clock rate of the module timer clock fCAN. Altering CAN module \a can_frequency shall
 717:D:\dholler\Dokumente\uni\bus\xmc\usbCanNode\Libraries\XMCLib\inc\xmc_can.h ****  * call XMC_CAN_NODE_NominalBitTimeConfigure() to configure baud rate for current CAN frequency.It 
 718:D:\dholler\Dokumente\uni\bus\xmc\usbCanNode\Libraries\XMCLib\inc\xmc_can.h ****  *
 719:D:\dholler\Dokumente\uni\bus\xmc\usbCanNode\Libraries\XMCLib\inc\xmc_can.h ****  * \par<b>Related APIs:</b><BR>
 720:D:\dholler\Dokumente\uni\bus\xmc\usbCanNode\Libraries\XMCLib\inc\xmc_can.h ****  * XMC_CAN_NODE_NominalBitTimeConfigure()\n\n\n
 721:D:\dholler\Dokumente\uni\bus\xmc\usbCanNode\Libraries\XMCLib\inc\xmc_can.h ****  *
 722:D:\dholler\Dokumente\uni\bus\xmc\usbCanNode\Libraries\XMCLib\inc\xmc_can.h ****  */
 723:D:\dholler\Dokumente\uni\bus\xmc\usbCanNode\Libraries\XMCLib\inc\xmc_can.h **** 
 724:D:\dholler\Dokumente\uni\bus\xmc\usbCanNode\Libraries\XMCLib\inc\xmc_can.h **** 
 725:D:\dholler\Dokumente\uni\bus\xmc\usbCanNode\Libraries\XMCLib\inc\xmc_can.h **** #if defined(MULTICAN_PLUS)
 726:D:\dholler\Dokumente\uni\bus\xmc\usbCanNode\Libraries\XMCLib\inc\xmc_can.h **** void XMC_CAN_Init(XMC_CAN_t *const obj, XMC_CAN_CANCLKSRC_t clksrc, uint32_t can_frequency);
 727:D:\dholler\Dokumente\uni\bus\xmc\usbCanNode\Libraries\XMCLib\inc\xmc_can.h **** /**
 728:D:\dholler\Dokumente\uni\bus\xmc\usbCanNode\Libraries\XMCLib\inc\xmc_can.h ****  *
 729:D:\dholler\Dokumente\uni\bus\xmc\usbCanNode\Libraries\XMCLib\inc\xmc_can.h ****  */
 730:D:\dholler\Dokumente\uni\bus\xmc\usbCanNode\Libraries\XMCLib\inc\xmc_can.h **** XMC_CAN_CANCLKSRC_t XMC_CAN_GetBaudrateClockSource(XMC_CAN_t *const obj);
 731:D:\dholler\Dokumente\uni\bus\xmc\usbCanNode\Libraries\XMCLib\inc\xmc_can.h **** /**
 732:D:\dholler\Dokumente\uni\bus\xmc\usbCanNode\Libraries\XMCLib\inc\xmc_can.h ****  *
 733:D:\dholler\Dokumente\uni\bus\xmc\usbCanNode\Libraries\XMCLib\inc\xmc_can.h ****  */
 734:D:\dholler\Dokumente\uni\bus\xmc\usbCanNode\Libraries\XMCLib\inc\xmc_can.h **** void XMC_CAN_SetBaudrateClockSource(XMC_CAN_t *const obj,const XMC_CAN_CANCLKSRC_t source);
 735:D:\dholler\Dokumente\uni\bus\xmc\usbCanNode\Libraries\XMCLib\inc\xmc_can.h **** /**
 736:D:\dholler\Dokumente\uni\bus\xmc\usbCanNode\Libraries\XMCLib\inc\xmc_can.h ****  *
 737:D:\dholler\Dokumente\uni\bus\xmc\usbCanNode\Libraries\XMCLib\inc\xmc_can.h ****  */
 738:D:\dholler\Dokumente\uni\bus\xmc\usbCanNode\Libraries\XMCLib\inc\xmc_can.h **** uint32_t XMC_CAN_GetBaudrateClockFrequency(XMC_CAN_t *const obj);
 739:D:\dholler\Dokumente\uni\bus\xmc\usbCanNode\Libraries\XMCLib\inc\xmc_can.h **** #else
 740:D:\dholler\Dokumente\uni\bus\xmc\usbCanNode\Libraries\XMCLib\inc\xmc_can.h **** void XMC_CAN_Init(XMC_CAN_t *const obj, uint32_t can_frequency);
 741:D:\dholler\Dokumente\uni\bus\xmc\usbCanNode\Libraries\XMCLib\inc\xmc_can.h **** #endif
 742:D:\dholler\Dokumente\uni\bus\xmc\usbCanNode\Libraries\XMCLib\inc\xmc_can.h **** 
 743:D:\dholler\Dokumente\uni\bus\xmc\usbCanNode\Libraries\XMCLib\inc\xmc_can.h **** /**
 744:D:\dholler\Dokumente\uni\bus\xmc\usbCanNode\Libraries\XMCLib\inc\xmc_can.h ****  *
 745:D:\dholler\Dokumente\uni\bus\xmc\usbCanNode\Libraries\XMCLib\inc\xmc_can.h ****  * @param can_mo Pointer to Message Object structure. Refer @ref XMC_CAN_MO_t data structure for de
 746:D:\dholler\Dokumente\uni\bus\xmc\usbCanNode\Libraries\XMCLib\inc\xmc_can.h ****  *
 747:D:\dholler\Dokumente\uni\bus\xmc\usbCanNode\Libraries\XMCLib\inc\xmc_can.h ****  * @return None
 748:D:\dholler\Dokumente\uni\bus\xmc\usbCanNode\Libraries\XMCLib\inc\xmc_can.h ****  *
 749:D:\dholler\Dokumente\uni\bus\xmc\usbCanNode\Libraries\XMCLib\inc\xmc_can.h ****  * \par<b>Description:</b><br>
 750:D:\dholler\Dokumente\uni\bus\xmc\usbCanNode\Libraries\XMCLib\inc\xmc_can.h ****  * Initializes CAN message object. Initialization includes configuring Message Object identifier ty
 751:D:\dholler\Dokumente\uni\bus\xmc\usbCanNode\Libraries\XMCLib\inc\xmc_can.h ****  * identifier value, Message Object type, and transfer requests. It configures FDR register.
 752:D:\dholler\Dokumente\uni\bus\xmc\usbCanNode\Libraries\XMCLib\inc\xmc_can.h ****  *
 753:D:\dholler\Dokumente\uni\bus\xmc\usbCanNode\Libraries\XMCLib\inc\xmc_can.h ****  * \par<b>Related APIs:</b><BR>
 754:D:\dholler\Dokumente\uni\bus\xmc\usbCanNode\Libraries\XMCLib\inc\xmc_can.h ****  * None
 755:D:\dholler\Dokumente\uni\bus\xmc\usbCanNode\Libraries\XMCLib\inc\xmc_can.h ****  *
 756:D:\dholler\Dokumente\uni\bus\xmc\usbCanNode\Libraries\XMCLib\inc\xmc_can.h ****  */
 757:D:\dholler\Dokumente\uni\bus\xmc\usbCanNode\Libraries\XMCLib\inc\xmc_can.h **** 
 758:D:\dholler\Dokumente\uni\bus\xmc\usbCanNode\Libraries\XMCLib\inc\xmc_can.h **** void XMC_CAN_MO_Config(const XMC_CAN_MO_t *const can_mo);
 759:D:\dholler\Dokumente\uni\bus\xmc\usbCanNode\Libraries\XMCLib\inc\xmc_can.h **** 
 760:D:\dholler\Dokumente\uni\bus\xmc\usbCanNode\Libraries\XMCLib\inc\xmc_can.h **** 
 761:D:\dholler\Dokumente\uni\bus\xmc\usbCanNode\Libraries\XMCLib\inc\xmc_can.h **** 	  /*NODE APIs*/
 762:D:\dholler\Dokumente\uni\bus\xmc\usbCanNode\Libraries\XMCLib\inc\xmc_can.h **** 
 763:D:\dholler\Dokumente\uni\bus\xmc\usbCanNode\Libraries\XMCLib\inc\xmc_can.h **** 
 764:D:\dholler\Dokumente\uni\bus\xmc\usbCanNode\Libraries\XMCLib\inc\xmc_can.h **** /**
 765:D:\dholler\Dokumente\uni\bus\xmc\usbCanNode\Libraries\XMCLib\inc\xmc_can.h ****  *
 766:D:\dholler\Dokumente\uni\bus\xmc\usbCanNode\Libraries\XMCLib\inc\xmc_can.h ****  * @param can_node  	  Pointer pointing to CAN_NODE Structure. Defines CAN_NODE registers.
 767:D:\dholler\Dokumente\uni\bus\xmc\usbCanNode\Libraries\XMCLib\inc\xmc_can.h ****  * @param ptr_event		  CAN_NODE interrupt pointer position. Refer @ref XMC_CAN_NODE_POINTER_EVENT_t
 768:D:\dholler\Dokumente\uni\bus\xmc\usbCanNode\Libraries\XMCLib\inc\xmc_can.h ****  * @param service_request Interrupt service request number. Range : 0-7
 769:D:\dholler\Dokumente\uni\bus\xmc\usbCanNode\Libraries\XMCLib\inc\xmc_can.h ****  *
 770:D:\dholler\Dokumente\uni\bus\xmc\usbCanNode\Libraries\XMCLib\inc\xmc_can.h ****  * @return None
 771:D:\dholler\Dokumente\uni\bus\xmc\usbCanNode\Libraries\XMCLib\inc\xmc_can.h ****  *
 772:D:\dholler\Dokumente\uni\bus\xmc\usbCanNode\Libraries\XMCLib\inc\xmc_can.h ****  * \par<b>Description:</b><br>
 773:D:\dholler\Dokumente\uni\bus\xmc\usbCanNode\Libraries\XMCLib\inc\xmc_can.h ****  *  Configures node interrupt pointer \a service_request for CAN Node events \a ptr_event. It confi
 774:D:\dholler\Dokumente\uni\bus\xmc\usbCanNode\Libraries\XMCLib\inc\xmc_can.h ****  *
 775:D:\dholler\Dokumente\uni\bus\xmc\usbCanNode\Libraries\XMCLib\inc\xmc_can.h ****  * \par<b>Related APIs:</b><BR>
 776:D:\dholler\Dokumente\uni\bus\xmc\usbCanNode\Libraries\XMCLib\inc\xmc_can.h ****  * None
 777:D:\dholler\Dokumente\uni\bus\xmc\usbCanNode\Libraries\XMCLib\inc\xmc_can.h ****  *
 778:D:\dholler\Dokumente\uni\bus\xmc\usbCanNode\Libraries\XMCLib\inc\xmc_can.h ****  */
 779:D:\dholler\Dokumente\uni\bus\xmc\usbCanNode\Libraries\XMCLib\inc\xmc_can.h **** 
 780:D:\dholler\Dokumente\uni\bus\xmc\usbCanNode\Libraries\XMCLib\inc\xmc_can.h **** __STATIC_INLINE void XMC_CAN_NODE_SetEventNodePointer(XMC_CAN_NODE_t *const can_node,
 781:D:\dholler\Dokumente\uni\bus\xmc\usbCanNode\Libraries\XMCLib\inc\xmc_can.h **** 		                                      const XMC_CAN_NODE_POINTER_EVENT_t ptr_event,
 782:D:\dholler\Dokumente\uni\bus\xmc\usbCanNode\Libraries\XMCLib\inc\xmc_can.h **** 		                                      const uint32_t service_request)
 783:D:\dholler\Dokumente\uni\bus\xmc\usbCanNode\Libraries\XMCLib\inc\xmc_can.h **** {
 784:D:\dholler\Dokumente\uni\bus\xmc\usbCanNode\Libraries\XMCLib\inc\xmc_can.h ****   can_node->NIPR = (uint32_t)((can_node->NIPR) & ~(uint32_t)(CAN_NODE_NIPR_Msk << (uint32_t)ptr_eve
 785:D:\dholler\Dokumente\uni\bus\xmc\usbCanNode\Libraries\XMCLib\inc\xmc_can.h **** }
 786:D:\dholler\Dokumente\uni\bus\xmc\usbCanNode\Libraries\XMCLib\inc\xmc_can.h **** 
 787:D:\dholler\Dokumente\uni\bus\xmc\usbCanNode\Libraries\XMCLib\inc\xmc_can.h **** 
 788:D:\dholler\Dokumente\uni\bus\xmc\usbCanNode\Libraries\XMCLib\inc\xmc_can.h **** /**
 789:D:\dholler\Dokumente\uni\bus\xmc\usbCanNode\Libraries\XMCLib\inc\xmc_can.h ****  *
 790:D:\dholler\Dokumente\uni\bus\xmc\usbCanNode\Libraries\XMCLib\inc\xmc_can.h ****  * @param can_node		Pointer pointing to CAN_NODE Structure. Defines CAN_NODE registers. Range :CAN_
 791:D:\dholler\Dokumente\uni\bus\xmc\usbCanNode\Libraries\XMCLib\inc\xmc_can.h ****  * @param can_bit_time	Nominal bit time configuration data structure. Refer @ref XMC_CAN_NODE_NOMIN
 792:D:\dholler\Dokumente\uni\bus\xmc\usbCanNode\Libraries\XMCLib\inc\xmc_can.h ****  *
 793:D:\dholler\Dokumente\uni\bus\xmc\usbCanNode\Libraries\XMCLib\inc\xmc_can.h ****  * @return None
 794:D:\dholler\Dokumente\uni\bus\xmc\usbCanNode\Libraries\XMCLib\inc\xmc_can.h ****  *
 795:D:\dholler\Dokumente\uni\bus\xmc\usbCanNode\Libraries\XMCLib\inc\xmc_can.h ****  * \par<b>Description:</b><br>
 796:D:\dholler\Dokumente\uni\bus\xmc\usbCanNode\Libraries\XMCLib\inc\xmc_can.h ****  * Configures CAN node Baudrate. \a can_bit_time specifies required baudrate for a specified \a can
 797:D:\dholler\Dokumente\uni\bus\xmc\usbCanNode\Libraries\XMCLib\inc\xmc_can.h ****  * It configures NBTR register.
 798:D:\dholler\Dokumente\uni\bus\xmc\usbCanNode\Libraries\XMCLib\inc\xmc_can.h ****  *
 799:D:\dholler\Dokumente\uni\bus\xmc\usbCanNode\Libraries\XMCLib\inc\xmc_can.h ****  * \par<b>Related APIs:</b><BR>
 800:D:\dholler\Dokumente\uni\bus\xmc\usbCanNode\Libraries\XMCLib\inc\xmc_can.h ****  * None
 801:D:\dholler\Dokumente\uni\bus\xmc\usbCanNode\Libraries\XMCLib\inc\xmc_can.h ****  *
 802:D:\dholler\Dokumente\uni\bus\xmc\usbCanNode\Libraries\XMCLib\inc\xmc_can.h ****  */
 803:D:\dholler\Dokumente\uni\bus\xmc\usbCanNode\Libraries\XMCLib\inc\xmc_can.h **** void XMC_CAN_NODE_NominalBitTimeConfigure (XMC_CAN_NODE_t *const can_node,
 804:D:\dholler\Dokumente\uni\bus\xmc\usbCanNode\Libraries\XMCLib\inc\xmc_can.h ****                                            const XMC_CAN_NODE_NOMINAL_BIT_TIME_CONFIG_t *const can_
 805:D:\dholler\Dokumente\uni\bus\xmc\usbCanNode\Libraries\XMCLib\inc\xmc_can.h **** 
 806:D:\dholler\Dokumente\uni\bus\xmc\usbCanNode\Libraries\XMCLib\inc\xmc_can.h **** /**
 807:D:\dholler\Dokumente\uni\bus\xmc\usbCanNode\Libraries\XMCLib\inc\xmc_can.h ****  * @param can_node Pointer pointing to CAN_NODE Structure. Defines CAN_NODE registers, Range :CAN_N
 808:D:\dholler\Dokumente\uni\bus\xmc\usbCanNode\Libraries\XMCLib\inc\xmc_can.h ****  * @param input    CAN receive input selection. Refer @ref XMC_CAN_NODE_RECEIVE_INPUT_t for details
 809:D:\dholler\Dokumente\uni\bus\xmc\usbCanNode\Libraries\XMCLib\inc\xmc_can.h ****  *
 810:D:\dholler\Dokumente\uni\bus\xmc\usbCanNode\Libraries\XMCLib\inc\xmc_can.h ****  * @return None
 811:D:\dholler\Dokumente\uni\bus\xmc\usbCanNode\Libraries\XMCLib\inc\xmc_can.h ****  *
 812:D:\dholler\Dokumente\uni\bus\xmc\usbCanNode\Libraries\XMCLib\inc\xmc_can.h ****  * \par<b>Description:</b><br>
 813:D:\dholler\Dokumente\uni\bus\xmc\usbCanNode\Libraries\XMCLib\inc\xmc_can.h ****  * \a input specifies CAN input receive pin. This API Configures NPCRx register,it is required to c
 814:D:\dholler\Dokumente\uni\bus\xmc\usbCanNode\Libraries\XMCLib\inc\xmc_can.h ****  * XMC_CAN_NODE_EnableConfigurationChange(), before configuring NPCRx register, call XMC_CAN_NODE_D
 815:D:\dholler\Dokumente\uni\bus\xmc\usbCanNode\Libraries\XMCLib\inc\xmc_can.h ****  * API after configuring NPCRx register. CAN input receive pins which falls under analog port pins 
 816:D:\dholler\Dokumente\uni\bus\xmc\usbCanNode\Libraries\XMCLib\inc\xmc_can.h ****  * XMC_GPIO_EnableDigitalInput(),to enable digital pad.
 817:D:\dholler\Dokumente\uni\bus\xmc\usbCanNode\Libraries\XMCLib\inc\xmc_can.h ****  *
 818:D:\dholler\Dokumente\uni\bus\xmc\usbCanNode\Libraries\XMCLib\inc\xmc_can.h ****  *\par<b>Related APIs:</b><BR>
 819:D:\dholler\Dokumente\uni\bus\xmc\usbCanNode\Libraries\XMCLib\inc\xmc_can.h ****  * None
 820:D:\dholler\Dokumente\uni\bus\xmc\usbCanNode\Libraries\XMCLib\inc\xmc_can.h ****  *
 821:D:\dholler\Dokumente\uni\bus\xmc\usbCanNode\Libraries\XMCLib\inc\xmc_can.h ****  * \par<b>Note:</b><br>
 822:D:\dholler\Dokumente\uni\bus\xmc\usbCanNode\Libraries\XMCLib\inc\xmc_can.h ****  * NPCRx can be written only if bit NCRx.CCE is set.
 823:D:\dholler\Dokumente\uni\bus\xmc\usbCanNode\Libraries\XMCLib\inc\xmc_can.h ****  *
 824:D:\dholler\Dokumente\uni\bus\xmc\usbCanNode\Libraries\XMCLib\inc\xmc_can.h ****  */
 825:D:\dholler\Dokumente\uni\bus\xmc\usbCanNode\Libraries\XMCLib\inc\xmc_can.h **** 
 826:D:\dholler\Dokumente\uni\bus\xmc\usbCanNode\Libraries\XMCLib\inc\xmc_can.h **** __STATIC_INLINE void XMC_CAN_NODE_SetReceiveInput(XMC_CAN_NODE_t *const can_node,
 827:D:\dholler\Dokumente\uni\bus\xmc\usbCanNode\Libraries\XMCLib\inc\xmc_can.h **** 		                                          const XMC_CAN_NODE_RECEIVE_INPUT_t input)
 828:D:\dholler\Dokumente\uni\bus\xmc\usbCanNode\Libraries\XMCLib\inc\xmc_can.h **** {
 829:D:\dholler\Dokumente\uni\bus\xmc\usbCanNode\Libraries\XMCLib\inc\xmc_can.h ****   can_node->NPCR = ((can_node->NPCR) & ~(uint32_t)(CAN_NODE_NPCR_RXSEL_Msk)) |
 830:D:\dholler\Dokumente\uni\bus\xmc\usbCanNode\Libraries\XMCLib\inc\xmc_can.h ****                    (((uint32_t)input << CAN_NODE_NPCR_RXSEL_Pos) & (uint32_t)CAN_NODE_NPCR_RXSEL_Ms
 831:D:\dholler\Dokumente\uni\bus\xmc\usbCanNode\Libraries\XMCLib\inc\xmc_can.h **** }
 832:D:\dholler\Dokumente\uni\bus\xmc\usbCanNode\Libraries\XMCLib\inc\xmc_can.h **** 
 833:D:\dholler\Dokumente\uni\bus\xmc\usbCanNode\Libraries\XMCLib\inc\xmc_can.h **** 
 834:D:\dholler\Dokumente\uni\bus\xmc\usbCanNode\Libraries\XMCLib\inc\xmc_can.h **** /**
 835:D:\dholler\Dokumente\uni\bus\xmc\usbCanNode\Libraries\XMCLib\inc\xmc_can.h ****  * @param can_node	Pointer Pointing to CAN_NODE Structure. Defines CAN_NODE registers, Range :CAN_N
 836:D:\dholler\Dokumente\uni\bus\xmc\usbCanNode\Libraries\XMCLib\inc\xmc_can.h ****  *
 837:D:\dholler\Dokumente\uni\bus\xmc\usbCanNode\Libraries\XMCLib\inc\xmc_can.h ****  * @return None
 838:D:\dholler\Dokumente\uni\bus\xmc\usbCanNode\Libraries\XMCLib\inc\xmc_can.h ****  *
 839:D:\dholler\Dokumente\uni\bus\xmc\usbCanNode\Libraries\XMCLib\inc\xmc_can.h ****  * \par<b>Description:</b><br>
 840:D:\dholler\Dokumente\uni\bus\xmc\usbCanNode\Libraries\XMCLib\inc\xmc_can.h ****  * Enable Node \a can_node in Loop-Back Mode. A Node is connected to an internal (virtual) loop-bac
 841:D:\dholler\Dokumente\uni\bus\xmc\usbCanNode\Libraries\XMCLib\inc\xmc_can.h ****  * nodes which are in Loop- Back Mode are connected to this virtual CAN bus so that they can commun
 842:D:\dholler\Dokumente\uni\bus\xmc\usbCanNode\Libraries\XMCLib\inc\xmc_can.h ****  * other internally. The external transmit line is forced recessive in Loop-Back Mode. This API Con
 843:D:\dholler\Dokumente\uni\bus\xmc\usbCanNode\Libraries\XMCLib\inc\xmc_can.h ****  * call XMC_CAN_NODE_EnableConfigurationChange() API before NPCRx configuration, same way XMC_CAN_N
 844:D:\dholler\Dokumente\uni\bus\xmc\usbCanNode\Libraries\XMCLib\inc\xmc_can.h ****  * API after NPCRx configuration configuration.
 845:D:\dholler\Dokumente\uni\bus\xmc\usbCanNode\Libraries\XMCLib\inc\xmc_can.h ****  *
 846:D:\dholler\Dokumente\uni\bus\xmc\usbCanNode\Libraries\XMCLib\inc\xmc_can.h ****  * \par<b>Related APIs:</b><BR>]
 847:D:\dholler\Dokumente\uni\bus\xmc\usbCanNode\Libraries\XMCLib\inc\xmc_can.h ****  *  XMC_CAN_NODE_DisableLoopBack().
 848:D:\dholler\Dokumente\uni\bus\xmc\usbCanNode\Libraries\XMCLib\inc\xmc_can.h ****  *
 849:D:\dholler\Dokumente\uni\bus\xmc\usbCanNode\Libraries\XMCLib\inc\xmc_can.h ****  *  \par<b>Note:</b><br>
 850:D:\dholler\Dokumente\uni\bus\xmc\usbCanNode\Libraries\XMCLib\inc\xmc_can.h ****  *  NPCRx can be written only if bit NCRx.CCE is set.
 851:D:\dholler\Dokumente\uni\bus\xmc\usbCanNode\Libraries\XMCLib\inc\xmc_can.h ****  *
 852:D:\dholler\Dokumente\uni\bus\xmc\usbCanNode\Libraries\XMCLib\inc\xmc_can.h ****  */
 853:D:\dholler\Dokumente\uni\bus\xmc\usbCanNode\Libraries\XMCLib\inc\xmc_can.h **** 
 854:D:\dholler\Dokumente\uni\bus\xmc\usbCanNode\Libraries\XMCLib\inc\xmc_can.h **** __STATIC_INLINE void XMC_CAN_NODE_EnableLoopBack(XMC_CAN_NODE_t *const can_node)
 855:D:\dholler\Dokumente\uni\bus\xmc\usbCanNode\Libraries\XMCLib\inc\xmc_can.h **** {
 856:D:\dholler\Dokumente\uni\bus\xmc\usbCanNode\Libraries\XMCLib\inc\xmc_can.h ****   can_node->NPCR |= (uint32_t)CAN_NODE_NPCR_LBM_Msk;
 857:D:\dholler\Dokumente\uni\bus\xmc\usbCanNode\Libraries\XMCLib\inc\xmc_can.h **** }
 858:D:\dholler\Dokumente\uni\bus\xmc\usbCanNode\Libraries\XMCLib\inc\xmc_can.h **** 
 859:D:\dholler\Dokumente\uni\bus\xmc\usbCanNode\Libraries\XMCLib\inc\xmc_can.h **** 
 860:D:\dholler\Dokumente\uni\bus\xmc\usbCanNode\Libraries\XMCLib\inc\xmc_can.h **** /**
 861:D:\dholler\Dokumente\uni\bus\xmc\usbCanNode\Libraries\XMCLib\inc\xmc_can.h ****  * @param can_node Pointer Pointing to CAN_NODE Structure. Defines CAN_NODE registers, Range :CAN_N
 862:D:\dholler\Dokumente\uni\bus\xmc\usbCanNode\Libraries\XMCLib\inc\xmc_can.h ****  *
 863:D:\dholler\Dokumente\uni\bus\xmc\usbCanNode\Libraries\XMCLib\inc\xmc_can.h ****  * @return None
 864:D:\dholler\Dokumente\uni\bus\xmc\usbCanNode\Libraries\XMCLib\inc\xmc_can.h ****  *
 865:D:\dholler\Dokumente\uni\bus\xmc\usbCanNode\Libraries\XMCLib\inc\xmc_can.h ****  * \par<b>Description:</b><br>
 866:D:\dholler\Dokumente\uni\bus\xmc\usbCanNode\Libraries\XMCLib\inc\xmc_can.h ****  * Disable Node Loop-Back Mode, disables internal (virtual) loop-back CAN bus. This API Configures 
 867:D:\dholler\Dokumente\uni\bus\xmc\usbCanNode\Libraries\XMCLib\inc\xmc_can.h ****  * Call XMC_CAN_NODE_EnableConfigurationChange() API before NPCRx configuration, same way XMC_CAN_N
 868:D:\dholler\Dokumente\uni\bus\xmc\usbCanNode\Libraries\XMCLib\inc\xmc_can.h ****  * API after NPCRx configuration.
 869:D:\dholler\Dokumente\uni\bus\xmc\usbCanNode\Libraries\XMCLib\inc\xmc_can.h ****  *
 870:D:\dholler\Dokumente\uni\bus\xmc\usbCanNode\Libraries\XMCLib\inc\xmc_can.h ****  * \par<b>Related APIs:</b><BR>]
 871:D:\dholler\Dokumente\uni\bus\xmc\usbCanNode\Libraries\XMCLib\inc\xmc_can.h ****  * XMC_CAN_NODE_EnableLoopBack()
 872:D:\dholler\Dokumente\uni\bus\xmc\usbCanNode\Libraries\XMCLib\inc\xmc_can.h ****  *
 873:D:\dholler\Dokumente\uni\bus\xmc\usbCanNode\Libraries\XMCLib\inc\xmc_can.h ****  *
 874:D:\dholler\Dokumente\uni\bus\xmc\usbCanNode\Libraries\XMCLib\inc\xmc_can.h ****  * \par<b>Note:</b><br>
 875:D:\dholler\Dokumente\uni\bus\xmc\usbCanNode\Libraries\XMCLib\inc\xmc_can.h ****  * NPCRx can be written only if bit NCRx.CCE is set.
 876:D:\dholler\Dokumente\uni\bus\xmc\usbCanNode\Libraries\XMCLib\inc\xmc_can.h ****  *
 877:D:\dholler\Dokumente\uni\bus\xmc\usbCanNode\Libraries\XMCLib\inc\xmc_can.h ****  */
 878:D:\dholler\Dokumente\uni\bus\xmc\usbCanNode\Libraries\XMCLib\inc\xmc_can.h **** 
 879:D:\dholler\Dokumente\uni\bus\xmc\usbCanNode\Libraries\XMCLib\inc\xmc_can.h **** __STATIC_INLINE void XMC_CAN_NODE_DisableLoopBack(XMC_CAN_NODE_t *const can_node)
 880:D:\dholler\Dokumente\uni\bus\xmc\usbCanNode\Libraries\XMCLib\inc\xmc_can.h **** {
 881:D:\dholler\Dokumente\uni\bus\xmc\usbCanNode\Libraries\XMCLib\inc\xmc_can.h ****   can_node->NPCR &= ~(uint32_t)CAN_NODE_NPCR_LBM_Msk;
 882:D:\dholler\Dokumente\uni\bus\xmc\usbCanNode\Libraries\XMCLib\inc\xmc_can.h **** }
 883:D:\dholler\Dokumente\uni\bus\xmc\usbCanNode\Libraries\XMCLib\inc\xmc_can.h **** 
 884:D:\dholler\Dokumente\uni\bus\xmc\usbCanNode\Libraries\XMCLib\inc\xmc_can.h **** 
 885:D:\dholler\Dokumente\uni\bus\xmc\usbCanNode\Libraries\XMCLib\inc\xmc_can.h **** /**
 886:D:\dholler\Dokumente\uni\bus\xmc\usbCanNode\Libraries\XMCLib\inc\xmc_can.h ****  *
 887:D:\dholler\Dokumente\uni\bus\xmc\usbCanNode\Libraries\XMCLib\inc\xmc_can.h ****  * @param can_node Pointer Pointing to CAN_NODE Structure. Defines CAN_NODE registers, Range :CAN_N
 888:D:\dholler\Dokumente\uni\bus\xmc\usbCanNode\Libraries\XMCLib\inc\xmc_can.h ****  * @param event	   CAN node event mask value. Refer @ref XMC_CAN_NODE_EVENT_t structure for valid v
 889:D:\dholler\Dokumente\uni\bus\xmc\usbCanNode\Libraries\XMCLib\inc\xmc_can.h ****  * 				   multiple events can be ORed.
 890:D:\dholler\Dokumente\uni\bus\xmc\usbCanNode\Libraries\XMCLib\inc\xmc_can.h ****  *
 891:D:\dholler\Dokumente\uni\bus\xmc\usbCanNode\Libraries\XMCLib\inc\xmc_can.h ****  * @return None
 892:D:\dholler\Dokumente\uni\bus\xmc\usbCanNode\Libraries\XMCLib\inc\xmc_can.h ****  *
 893:D:\dholler\Dokumente\uni\bus\xmc\usbCanNode\Libraries\XMCLib\inc\xmc_can.h ****  * \par<b>Description:</b><br>
 894:D:\dholler\Dokumente\uni\bus\xmc\usbCanNode\Libraries\XMCLib\inc\xmc_can.h ****  *  Enable CAN Node events. It configures NFCR register.
 895:D:\dholler\Dokumente\uni\bus\xmc\usbCanNode\Libraries\XMCLib\inc\xmc_can.h ****  *
 896:D:\dholler\Dokumente\uni\bus\xmc\usbCanNode\Libraries\XMCLib\inc\xmc_can.h ****  * \par<b>Related APIs:</b><BR>
 897:D:\dholler\Dokumente\uni\bus\xmc\usbCanNode\Libraries\XMCLib\inc\xmc_can.h ****  * XMC_CAN_NODE_DisableEvent()
 898:D:\dholler\Dokumente\uni\bus\xmc\usbCanNode\Libraries\XMCLib\inc\xmc_can.h ****  *
 899:D:\dholler\Dokumente\uni\bus\xmc\usbCanNode\Libraries\XMCLib\inc\xmc_can.h ****  */
 900:D:\dholler\Dokumente\uni\bus\xmc\usbCanNode\Libraries\XMCLib\inc\xmc_can.h **** 
 901:D:\dholler\Dokumente\uni\bus\xmc\usbCanNode\Libraries\XMCLib\inc\xmc_can.h **** void XMC_CAN_NODE_EnableEvent(XMC_CAN_NODE_t *const can_node, const XMC_CAN_NODE_EVENT_t event);
 902:D:\dholler\Dokumente\uni\bus\xmc\usbCanNode\Libraries\XMCLib\inc\xmc_can.h **** 
 903:D:\dholler\Dokumente\uni\bus\xmc\usbCanNode\Libraries\XMCLib\inc\xmc_can.h **** 
 904:D:\dholler\Dokumente\uni\bus\xmc\usbCanNode\Libraries\XMCLib\inc\xmc_can.h **** /**
 905:D:\dholler\Dokumente\uni\bus\xmc\usbCanNode\Libraries\XMCLib\inc\xmc_can.h ****  *
 906:D:\dholler\Dokumente\uni\bus\xmc\usbCanNode\Libraries\XMCLib\inc\xmc_can.h ****  * @param can_node Pointer Pointing to CAN_NODE Structure. Defines CAN_NODE registers, Range :CAN_N
 907:D:\dholler\Dokumente\uni\bus\xmc\usbCanNode\Libraries\XMCLib\inc\xmc_can.h ****  * @param event	   CAN node event mask value. Refer @ref XMC_CAN_NODE_EVENT_t structure for valid v
 908:D:\dholler\Dokumente\uni\bus\xmc\usbCanNode\Libraries\XMCLib\inc\xmc_can.h ****  * 				   multiple events can be ORed.
 909:D:\dholler\Dokumente\uni\bus\xmc\usbCanNode\Libraries\XMCLib\inc\xmc_can.h ****  *
 910:D:\dholler\Dokumente\uni\bus\xmc\usbCanNode\Libraries\XMCLib\inc\xmc_can.h ****  * @return None
 911:D:\dholler\Dokumente\uni\bus\xmc\usbCanNode\Libraries\XMCLib\inc\xmc_can.h ****  *
 912:D:\dholler\Dokumente\uni\bus\xmc\usbCanNode\Libraries\XMCLib\inc\xmc_can.h ****  * \par<b>Description:</b><br>
 913:D:\dholler\Dokumente\uni\bus\xmc\usbCanNode\Libraries\XMCLib\inc\xmc_can.h ****  *  Disable CAN Node events. It configures NFCR register.
 914:D:\dholler\Dokumente\uni\bus\xmc\usbCanNode\Libraries\XMCLib\inc\xmc_can.h ****  *
 915:D:\dholler\Dokumente\uni\bus\xmc\usbCanNode\Libraries\XMCLib\inc\xmc_can.h ****  * \par<b>Related APIs:</b><BR>
 916:D:\dholler\Dokumente\uni\bus\xmc\usbCanNode\Libraries\XMCLib\inc\xmc_can.h ****  * XMC_CAN_NODE_EnableEvent()
 917:D:\dholler\Dokumente\uni\bus\xmc\usbCanNode\Libraries\XMCLib\inc\xmc_can.h ****  *
 918:D:\dholler\Dokumente\uni\bus\xmc\usbCanNode\Libraries\XMCLib\inc\xmc_can.h ****  */
 919:D:\dholler\Dokumente\uni\bus\xmc\usbCanNode\Libraries\XMCLib\inc\xmc_can.h **** 
 920:D:\dholler\Dokumente\uni\bus\xmc\usbCanNode\Libraries\XMCLib\inc\xmc_can.h **** void XMC_CAN_NODE_DisableEvent(XMC_CAN_NODE_t *const can_node, const XMC_CAN_NODE_EVENT_t event);
 921:D:\dholler\Dokumente\uni\bus\xmc\usbCanNode\Libraries\XMCLib\inc\xmc_can.h **** 
 922:D:\dholler\Dokumente\uni\bus\xmc\usbCanNode\Libraries\XMCLib\inc\xmc_can.h **** 
 923:D:\dholler\Dokumente\uni\bus\xmc\usbCanNode\Libraries\XMCLib\inc\xmc_can.h **** /**
 924:D:\dholler\Dokumente\uni\bus\xmc\usbCanNode\Libraries\XMCLib\inc\xmc_can.h ****  *
 925:D:\dholler\Dokumente\uni\bus\xmc\usbCanNode\Libraries\XMCLib\inc\xmc_can.h ****  * @param node Pointer Pointing to CAN_NODE Structure. Defines CAN_NODE registers, Range :CAN_NODE0
 926:D:\dholler\Dokumente\uni\bus\xmc\usbCanNode\Libraries\XMCLib\inc\xmc_can.h ****  *
 927:D:\dholler\Dokumente\uni\bus\xmc\usbCanNode\Libraries\XMCLib\inc\xmc_can.h ****  * @return XMC_CAN_NODE_LAST_ERROR_DIR_t Last error transfer direction. Refer @ref XMC_CAN_NODE_LAS
 928:D:\dholler\Dokumente\uni\bus\xmc\usbCanNode\Libraries\XMCLib\inc\xmc_can.h ****  *
 929:D:\dholler\Dokumente\uni\bus\xmc\usbCanNode\Libraries\XMCLib\inc\xmc_can.h ****  * \par<b>Description:</b><br>
 930:D:\dholler\Dokumente\uni\bus\xmc\usbCanNode\Libraries\XMCLib\inc\xmc_can.h ****  * Returns NODE Last Error occurred during Transmit/receive direction. It returns value of NFCR reg
 931:D:\dholler\Dokumente\uni\bus\xmc\usbCanNode\Libraries\XMCLib\inc\xmc_can.h ****  *
 932:D:\dholler\Dokumente\uni\bus\xmc\usbCanNode\Libraries\XMCLib\inc\xmc_can.h ****  * \par<b>Related APIs:</b><BR>
 933:D:\dholler\Dokumente\uni\bus\xmc\usbCanNode\Libraries\XMCLib\inc\xmc_can.h ****  * XMC_CAN_NODE_GetLastErrTransferInc()\n\n\n
 934:D:\dholler\Dokumente\uni\bus\xmc\usbCanNode\Libraries\XMCLib\inc\xmc_can.h ****  *
 935:D:\dholler\Dokumente\uni\bus\xmc\usbCanNode\Libraries\XMCLib\inc\xmc_can.h ****  */
 936:D:\dholler\Dokumente\uni\bus\xmc\usbCanNode\Libraries\XMCLib\inc\xmc_can.h **** 
 937:D:\dholler\Dokumente\uni\bus\xmc\usbCanNode\Libraries\XMCLib\inc\xmc_can.h **** __STATIC_INLINE XMC_CAN_NODE_LAST_ERROR_DIR_t XMC_CAN_NODE_GetLastErrTransferDir(XMC_CAN_NODE_t *co
 938:D:\dholler\Dokumente\uni\bus\xmc\usbCanNode\Libraries\XMCLib\inc\xmc_can.h **** {
 939:D:\dholler\Dokumente\uni\bus\xmc\usbCanNode\Libraries\XMCLib\inc\xmc_can.h ****   return (XMC_CAN_NODE_LAST_ERROR_DIR_t)(((node->NECNT) & CAN_NODE_NECNT_LETD_Msk) >> CAN_NODE_NECN
 940:D:\dholler\Dokumente\uni\bus\xmc\usbCanNode\Libraries\XMCLib\inc\xmc_can.h **** }
 941:D:\dholler\Dokumente\uni\bus\xmc\usbCanNode\Libraries\XMCLib\inc\xmc_can.h **** 
 942:D:\dholler\Dokumente\uni\bus\xmc\usbCanNode\Libraries\XMCLib\inc\xmc_can.h **** 
 943:D:\dholler\Dokumente\uni\bus\xmc\usbCanNode\Libraries\XMCLib\inc\xmc_can.h **** /**
 944:D:\dholler\Dokumente\uni\bus\xmc\usbCanNode\Libraries\XMCLib\inc\xmc_can.h ****  *
 945:D:\dholler\Dokumente\uni\bus\xmc\usbCanNode\Libraries\XMCLib\inc\xmc_can.h ****  * @param node Pointer Pointing to CAN_NODE Structure. Defines CAN_NODE registers, Range :CAN_NODE0
 946:D:\dholler\Dokumente\uni\bus\xmc\usbCanNode\Libraries\XMCLib\inc\xmc_can.h ****  *
 947:D:\dholler\Dokumente\uni\bus\xmc\usbCanNode\Libraries\XMCLib\inc\xmc_can.h ****  * @return XMC_CAN_NODE_LAST_ERROR_INC_t Last error transfer increment. Refer @ref XMC_CAN_NODE_LAS
 948:D:\dholler\Dokumente\uni\bus\xmc\usbCanNode\Libraries\XMCLib\inc\xmc_can.h ****  *
 949:D:\dholler\Dokumente\uni\bus\xmc\usbCanNode\Libraries\XMCLib\inc\xmc_can.h ****  * \par<b>Description:</b><br>
 950:D:\dholler\Dokumente\uni\bus\xmc\usbCanNode\Libraries\XMCLib\inc\xmc_can.h ****  *  Returns NODE Last Error Transfer Increment. It returns value of NFCR register.
 951:D:\dholler\Dokumente\uni\bus\xmc\usbCanNode\Libraries\XMCLib\inc\xmc_can.h ****  *
 952:D:\dholler\Dokumente\uni\bus\xmc\usbCanNode\Libraries\XMCLib\inc\xmc_can.h ****  * \par<b>Related APIs:</b><BR>
 953:D:\dholler\Dokumente\uni\bus\xmc\usbCanNode\Libraries\XMCLib\inc\xmc_can.h ****  * XMC_CAN_NODE_GetLastErrTransferDir()\n\n\n
 954:D:\dholler\Dokumente\uni\bus\xmc\usbCanNode\Libraries\XMCLib\inc\xmc_can.h ****  *
 955:D:\dholler\Dokumente\uni\bus\xmc\usbCanNode\Libraries\XMCLib\inc\xmc_can.h ****  */
 956:D:\dholler\Dokumente\uni\bus\xmc\usbCanNode\Libraries\XMCLib\inc\xmc_can.h **** 
 957:D:\dholler\Dokumente\uni\bus\xmc\usbCanNode\Libraries\XMCLib\inc\xmc_can.h **** __STATIC_INLINE XMC_CAN_NODE_LAST_ERROR_INC_t XMC_CAN_NODE_GetLastErrTransferInc(XMC_CAN_NODE_t *co
 958:D:\dholler\Dokumente\uni\bus\xmc\usbCanNode\Libraries\XMCLib\inc\xmc_can.h **** {
 959:D:\dholler\Dokumente\uni\bus\xmc\usbCanNode\Libraries\XMCLib\inc\xmc_can.h ****   return (XMC_CAN_NODE_LAST_ERROR_INC_t)(((node->NECNT) & CAN_NODE_NECNT_LEINC_Msk)>> CAN_NODE_NECN
 960:D:\dholler\Dokumente\uni\bus\xmc\usbCanNode\Libraries\XMCLib\inc\xmc_can.h **** }
 961:D:\dholler\Dokumente\uni\bus\xmc\usbCanNode\Libraries\XMCLib\inc\xmc_can.h **** 
 962:D:\dholler\Dokumente\uni\bus\xmc\usbCanNode\Libraries\XMCLib\inc\xmc_can.h **** 
 963:D:\dholler\Dokumente\uni\bus\xmc\usbCanNode\Libraries\XMCLib\inc\xmc_can.h **** /**
 964:D:\dholler\Dokumente\uni\bus\xmc\usbCanNode\Libraries\XMCLib\inc\xmc_can.h ****  *
 965:D:\dholler\Dokumente\uni\bus\xmc\usbCanNode\Libraries\XMCLib\inc\xmc_can.h ****  * @param can_node Pointer Pointing to CAN_NODE Structure. Defines CAN_NODE registers, Range :CAN_N
 966:D:\dholler\Dokumente\uni\bus\xmc\usbCanNode\Libraries\XMCLib\inc\xmc_can.h ****  * @param  error_warning_level	Error Warning level value. Range :0-255.
 967:D:\dholler\Dokumente\uni\bus\xmc\usbCanNode\Libraries\XMCLib\inc\xmc_can.h ****  *
 968:D:\dholler\Dokumente\uni\bus\xmc\usbCanNode\Libraries\XMCLib\inc\xmc_can.h ****  * @return None
 969:D:\dholler\Dokumente\uni\bus\xmc\usbCanNode\Libraries\XMCLib\inc\xmc_can.h ****  *
 970:D:\dholler\Dokumente\uni\bus\xmc\usbCanNode\Libraries\XMCLib\inc\xmc_can.h ****  * \par<b>Description:</b><br>
 971:D:\dholler\Dokumente\uni\bus\xmc\usbCanNode\Libraries\XMCLib\inc\xmc_can.h ****  * Configures error warning level in order to set the corresponding error warning bit EWRN. It conf
 972:D:\dholler\Dokumente\uni\bus\xmc\usbCanNode\Libraries\XMCLib\inc\xmc_can.h ****  * into NECNT register. Before this configuration call XMC_CAN_NODE_EnableConfigurationChange() API
 973:D:\dholler\Dokumente\uni\bus\xmc\usbCanNode\Libraries\XMCLib\inc\xmc_can.h ****  *
 974:D:\dholler\Dokumente\uni\bus\xmc\usbCanNode\Libraries\XMCLib\inc\xmc_can.h ****  * \par<b>Related APIs:</b><BR>
 975:D:\dholler\Dokumente\uni\bus\xmc\usbCanNode\Libraries\XMCLib\inc\xmc_can.h ****  * XMC_CAN_NODE_GetErrorWarningLevel()\n\n\n
 976:D:\dholler\Dokumente\uni\bus\xmc\usbCanNode\Libraries\XMCLib\inc\xmc_can.h ****  *
 977:D:\dholler\Dokumente\uni\bus\xmc\usbCanNode\Libraries\XMCLib\inc\xmc_can.h ****  * \par<b>Note:</b><br>
 978:D:\dholler\Dokumente\uni\bus\xmc\usbCanNode\Libraries\XMCLib\inc\xmc_can.h ****  *  NECNTx can be written only if bit NCRx.CCE is set.
 979:D:\dholler\Dokumente\uni\bus\xmc\usbCanNode\Libraries\XMCLib\inc\xmc_can.h ****  *
 980:D:\dholler\Dokumente\uni\bus\xmc\usbCanNode\Libraries\XMCLib\inc\xmc_can.h ****  */
 981:D:\dholler\Dokumente\uni\bus\xmc\usbCanNode\Libraries\XMCLib\inc\xmc_can.h **** 
 982:D:\dholler\Dokumente\uni\bus\xmc\usbCanNode\Libraries\XMCLib\inc\xmc_can.h **** __STATIC_INLINE void XMC_CAN_NODE_SetErrorWarningLevel(XMC_CAN_NODE_t *const can_node, uint8_t erro
 983:D:\dholler\Dokumente\uni\bus\xmc\usbCanNode\Libraries\XMCLib\inc\xmc_can.h **** {
 984:D:\dholler\Dokumente\uni\bus\xmc\usbCanNode\Libraries\XMCLib\inc\xmc_can.h ****   can_node->NECNT = ((can_node->NECNT) & ~(uint32_t)(CAN_NODE_NECNT_EWRNLVL_Msk)) |
 985:D:\dholler\Dokumente\uni\bus\xmc\usbCanNode\Libraries\XMCLib\inc\xmc_can.h ****                     (((uint32_t)error_warning_level << CAN_NODE_NECNT_EWRNLVL_Pos) & (uint32_t)CAN_
 986:D:\dholler\Dokumente\uni\bus\xmc\usbCanNode\Libraries\XMCLib\inc\xmc_can.h **** }
 987:D:\dholler\Dokumente\uni\bus\xmc\usbCanNode\Libraries\XMCLib\inc\xmc_can.h **** 
 988:D:\dholler\Dokumente\uni\bus\xmc\usbCanNode\Libraries\XMCLib\inc\xmc_can.h **** 
 989:D:\dholler\Dokumente\uni\bus\xmc\usbCanNode\Libraries\XMCLib\inc\xmc_can.h **** /**
 990:D:\dholler\Dokumente\uni\bus\xmc\usbCanNode\Libraries\XMCLib\inc\xmc_can.h ****  *
 991:D:\dholler\Dokumente\uni\bus\xmc\usbCanNode\Libraries\XMCLib\inc\xmc_can.h ****  * @param can_node Pointer Pointing to CAN_NODE Structure. Defines CAN_NODE registers, Range :CAN_N
 992:D:\dholler\Dokumente\uni\bus\xmc\usbCanNode\Libraries\XMCLib\inc\xmc_can.h ****  * @param can_tec  transmit error counter value. Range :0-255
 993:D:\dholler\Dokumente\uni\bus\xmc\usbCanNode\Libraries\XMCLib\inc\xmc_can.h ****  *
 994:D:\dholler\Dokumente\uni\bus\xmc\usbCanNode\Libraries\XMCLib\inc\xmc_can.h ****  * @return None
 995:D:\dholler\Dokumente\uni\bus\xmc\usbCanNode\Libraries\XMCLib\inc\xmc_can.h ****  *
 996:D:\dholler\Dokumente\uni\bus\xmc\usbCanNode\Libraries\XMCLib\inc\xmc_can.h ****  * \par<b>Description:</b><br>
 997:D:\dholler\Dokumente\uni\bus\xmc\usbCanNode\Libraries\XMCLib\inc\xmc_can.h ****  *  Configures Transmit error counter. It configures \a can_tec into NECNT register. Before this co
 998:D:\dholler\Dokumente\uni\bus\xmc\usbCanNode\Libraries\XMCLib\inc\xmc_can.h ****  *  XMC_CAN_NODE_EnableConfigurationChange() API.
 999:D:\dholler\Dokumente\uni\bus\xmc\usbCanNode\Libraries\XMCLib\inc\xmc_can.h ****  *
1000:D:\dholler\Dokumente\uni\bus\xmc\usbCanNode\Libraries\XMCLib\inc\xmc_can.h ****  * \par<b>Related APIs:</b><BR>
1001:D:\dholler\Dokumente\uni\bus\xmc\usbCanNode\Libraries\XMCLib\inc\xmc_can.h ****  * XMC_CAN_NODE_GetTransmitErrorCounter()\n\n\n
1002:D:\dholler\Dokumente\uni\bus\xmc\usbCanNode\Libraries\XMCLib\inc\xmc_can.h ****  *
1003:D:\dholler\Dokumente\uni\bus\xmc\usbCanNode\Libraries\XMCLib\inc\xmc_can.h ****  *  \par<b>Note:</b><br>
1004:D:\dholler\Dokumente\uni\bus\xmc\usbCanNode\Libraries\XMCLib\inc\xmc_can.h ****  *  NECNTx can be written only if bit NCRx.CCE is set.
1005:D:\dholler\Dokumente\uni\bus\xmc\usbCanNode\Libraries\XMCLib\inc\xmc_can.h ****  *
1006:D:\dholler\Dokumente\uni\bus\xmc\usbCanNode\Libraries\XMCLib\inc\xmc_can.h ****  */
1007:D:\dholler\Dokumente\uni\bus\xmc\usbCanNode\Libraries\XMCLib\inc\xmc_can.h **** 
1008:D:\dholler\Dokumente\uni\bus\xmc\usbCanNode\Libraries\XMCLib\inc\xmc_can.h **** 
1009:D:\dholler\Dokumente\uni\bus\xmc\usbCanNode\Libraries\XMCLib\inc\xmc_can.h **** __STATIC_INLINE void XMC_CAN_NODE_SetTransmitErrorCounter(XMC_CAN_NODE_t *const can_node, uint8_t c
1010:D:\dholler\Dokumente\uni\bus\xmc\usbCanNode\Libraries\XMCLib\inc\xmc_can.h **** {
1011:D:\dholler\Dokumente\uni\bus\xmc\usbCanNode\Libraries\XMCLib\inc\xmc_can.h ****   can_node->NECNT = ((can_node->NECNT) & ~(uint32_t)(CAN_NODE_NECNT_TEC_Msk)) |
1012:D:\dholler\Dokumente\uni\bus\xmc\usbCanNode\Libraries\XMCLib\inc\xmc_can.h ****                     (((uint32_t)can_tec << CAN_NODE_NECNT_TEC_Pos) & (uint32_t)CAN_NODE_NECNT_TEC_M
1013:D:\dholler\Dokumente\uni\bus\xmc\usbCanNode\Libraries\XMCLib\inc\xmc_can.h **** }
1014:D:\dholler\Dokumente\uni\bus\xmc\usbCanNode\Libraries\XMCLib\inc\xmc_can.h **** 
1015:D:\dholler\Dokumente\uni\bus\xmc\usbCanNode\Libraries\XMCLib\inc\xmc_can.h **** 
1016:D:\dholler\Dokumente\uni\bus\xmc\usbCanNode\Libraries\XMCLib\inc\xmc_can.h **** /**
1017:D:\dholler\Dokumente\uni\bus\xmc\usbCanNode\Libraries\XMCLib\inc\xmc_can.h ****  *
1018:D:\dholler\Dokumente\uni\bus\xmc\usbCanNode\Libraries\XMCLib\inc\xmc_can.h ****  * @param can_node Pointer Pointing to CAN_NODE Structure. Defines CAN_NODE registers, Range :CAN_N
1019:D:\dholler\Dokumente\uni\bus\xmc\usbCanNode\Libraries\XMCLib\inc\xmc_can.h ****  * @param can_rec  receive error counter value. Range :0-255
1020:D:\dholler\Dokumente\uni\bus\xmc\usbCanNode\Libraries\XMCLib\inc\xmc_can.h ****  *
1021:D:\dholler\Dokumente\uni\bus\xmc\usbCanNode\Libraries\XMCLib\inc\xmc_can.h ****  * @return None
1022:D:\dholler\Dokumente\uni\bus\xmc\usbCanNode\Libraries\XMCLib\inc\xmc_can.h ****  *
1023:D:\dholler\Dokumente\uni\bus\xmc\usbCanNode\Libraries\XMCLib\inc\xmc_can.h ****  * \par<b>Description:</b><br>
1024:D:\dholler\Dokumente\uni\bus\xmc\usbCanNode\Libraries\XMCLib\inc\xmc_can.h ****  * Configures Receive Error Counter. It configures \a can_rec into NECNT register. Before this conf
1025:D:\dholler\Dokumente\uni\bus\xmc\usbCanNode\Libraries\XMCLib\inc\xmc_can.h ****  * XMC_CAN_NODE_EnableConfigurationChange() API.
1026:D:\dholler\Dokumente\uni\bus\xmc\usbCanNode\Libraries\XMCLib\inc\xmc_can.h ****  *
1027:D:\dholler\Dokumente\uni\bus\xmc\usbCanNode\Libraries\XMCLib\inc\xmc_can.h ****  * \par<b>Related APIs:</b><BR>
1028:D:\dholler\Dokumente\uni\bus\xmc\usbCanNode\Libraries\XMCLib\inc\xmc_can.h ****  * XMC_CAN_NODE_GetReceiveErrorCounter()\n\n\n
1029:D:\dholler\Dokumente\uni\bus\xmc\usbCanNode\Libraries\XMCLib\inc\xmc_can.h ****  *
1030:D:\dholler\Dokumente\uni\bus\xmc\usbCanNode\Libraries\XMCLib\inc\xmc_can.h ****  * \par<b>Note:</b><br>
1031:D:\dholler\Dokumente\uni\bus\xmc\usbCanNode\Libraries\XMCLib\inc\xmc_can.h ****  *  NECNTx can be written only if bit NCRx.CCE is set.
1032:D:\dholler\Dokumente\uni\bus\xmc\usbCanNode\Libraries\XMCLib\inc\xmc_can.h ****  *
1033:D:\dholler\Dokumente\uni\bus\xmc\usbCanNode\Libraries\XMCLib\inc\xmc_can.h ****  */
1034:D:\dholler\Dokumente\uni\bus\xmc\usbCanNode\Libraries\XMCLib\inc\xmc_can.h **** 
1035:D:\dholler\Dokumente\uni\bus\xmc\usbCanNode\Libraries\XMCLib\inc\xmc_can.h **** __STATIC_INLINE void XMC_CAN_NODE_SetReceiveErrorCounter(XMC_CAN_NODE_t *const can_node, uint8_t ca
1036:D:\dholler\Dokumente\uni\bus\xmc\usbCanNode\Libraries\XMCLib\inc\xmc_can.h **** {
1037:D:\dholler\Dokumente\uni\bus\xmc\usbCanNode\Libraries\XMCLib\inc\xmc_can.h ****  can_node->NECNT = ((can_node->NECNT) & ~(uint32_t)(CAN_NODE_NECNT_REC_Msk)) |
1038:D:\dholler\Dokumente\uni\bus\xmc\usbCanNode\Libraries\XMCLib\inc\xmc_can.h ****                    (((uint32_t)can_rec << CAN_NODE_NECNT_REC_Pos) & (uint32_t)CAN_NODE_NECNT_REC_Ms
1039:D:\dholler\Dokumente\uni\bus\xmc\usbCanNode\Libraries\XMCLib\inc\xmc_can.h **** }
1040:D:\dholler\Dokumente\uni\bus\xmc\usbCanNode\Libraries\XMCLib\inc\xmc_can.h **** 
1041:D:\dholler\Dokumente\uni\bus\xmc\usbCanNode\Libraries\XMCLib\inc\xmc_can.h **** 
1042:D:\dholler\Dokumente\uni\bus\xmc\usbCanNode\Libraries\XMCLib\inc\xmc_can.h **** /**
1043:D:\dholler\Dokumente\uni\bus\xmc\usbCanNode\Libraries\XMCLib\inc\xmc_can.h ****  *
1044:D:\dholler\Dokumente\uni\bus\xmc\usbCanNode\Libraries\XMCLib\inc\xmc_can.h ****  * @param can_node Pointer Pointing to CAN_NODE Structure. Defines CAN_NODE registers, Range :CAN_N
1045:D:\dholler\Dokumente\uni\bus\xmc\usbCanNode\Libraries\XMCLib\inc\xmc_can.h ****  *
1046:D:\dholler\Dokumente\uni\bus\xmc\usbCanNode\Libraries\XMCLib\inc\xmc_can.h ****  * @return uint8_t Error Warning Level. Range :0 - 255
1047:D:\dholler\Dokumente\uni\bus\xmc\usbCanNode\Libraries\XMCLib\inc\xmc_can.h ****  *
1048:D:\dholler\Dokumente\uni\bus\xmc\usbCanNode\Libraries\XMCLib\inc\xmc_can.h ****  * \par<b>Description:</b><br>
1049:D:\dholler\Dokumente\uni\bus\xmc\usbCanNode\Libraries\XMCLib\inc\xmc_can.h ****  *	Returns error warning level. This determines the threshold value (warning level, default 96) to 
1050:D:\dholler\Dokumente\uni\bus\xmc\usbCanNode\Libraries\XMCLib\inc\xmc_can.h ****  *	to set the corresponding error warning bit EWRN. It reads NECNT register.
1051:D:\dholler\Dokumente\uni\bus\xmc\usbCanNode\Libraries\XMCLib\inc\xmc_can.h ****  *
1052:D:\dholler\Dokumente\uni\bus\xmc\usbCanNode\Libraries\XMCLib\inc\xmc_can.h ****  * \par<b>Related APIs:</b><BR>
1053:D:\dholler\Dokumente\uni\bus\xmc\usbCanNode\Libraries\XMCLib\inc\xmc_can.h ****  * XMC_CAN_NODE_SetErrorWarningLevel()\n\n\n
1054:D:\dholler\Dokumente\uni\bus\xmc\usbCanNode\Libraries\XMCLib\inc\xmc_can.h ****  *
1055:D:\dholler\Dokumente\uni\bus\xmc\usbCanNode\Libraries\XMCLib\inc\xmc_can.h ****  */
1056:D:\dholler\Dokumente\uni\bus\xmc\usbCanNode\Libraries\XMCLib\inc\xmc_can.h **** 
1057:D:\dholler\Dokumente\uni\bus\xmc\usbCanNode\Libraries\XMCLib\inc\xmc_can.h **** 
1058:D:\dholler\Dokumente\uni\bus\xmc\usbCanNode\Libraries\XMCLib\inc\xmc_can.h **** __STATIC_INLINE uint8_t XMC_CAN_NODE_GetErrorWarningLevel(XMC_CAN_NODE_t *const can_node)
1059:D:\dholler\Dokumente\uni\bus\xmc\usbCanNode\Libraries\XMCLib\inc\xmc_can.h **** {
1060:D:\dholler\Dokumente\uni\bus\xmc\usbCanNode\Libraries\XMCLib\inc\xmc_can.h ****  return (uint8_t)((uint32_t)((can_node->NECNT)  & CAN_NODE_NECNT_EWRNLVL_Msk) >> CAN_NODE_NECNT_EWR
1061:D:\dholler\Dokumente\uni\bus\xmc\usbCanNode\Libraries\XMCLib\inc\xmc_can.h **** }
1062:D:\dholler\Dokumente\uni\bus\xmc\usbCanNode\Libraries\XMCLib\inc\xmc_can.h **** 
1063:D:\dholler\Dokumente\uni\bus\xmc\usbCanNode\Libraries\XMCLib\inc\xmc_can.h **** 
1064:D:\dholler\Dokumente\uni\bus\xmc\usbCanNode\Libraries\XMCLib\inc\xmc_can.h **** /**
1065:D:\dholler\Dokumente\uni\bus\xmc\usbCanNode\Libraries\XMCLib\inc\xmc_can.h ****  *
1066:D:\dholler\Dokumente\uni\bus\xmc\usbCanNode\Libraries\XMCLib\inc\xmc_can.h ****  * @param can_node Pointer Pointing to CAN_NODE Structure. Defines CAN_NODE registers, Range :CAN_N
1067:D:\dholler\Dokumente\uni\bus\xmc\usbCanNode\Libraries\XMCLib\inc\xmc_can.h ****  *
1068:D:\dholler\Dokumente\uni\bus\xmc\usbCanNode\Libraries\XMCLib\inc\xmc_can.h ****  * @return uint8_t transmit error counter value. Range :0 - 255
1069:D:\dholler\Dokumente\uni\bus\xmc\usbCanNode\Libraries\XMCLib\inc\xmc_can.h ****  *
1070:D:\dholler\Dokumente\uni\bus\xmc\usbCanNode\Libraries\XMCLib\inc\xmc_can.h ****  * \par<b>Description:</b><br>
1071:D:\dholler\Dokumente\uni\bus\xmc\usbCanNode\Libraries\XMCLib\inc\xmc_can.h ****  *	Returns Transmit Error Counter value. If the Bitstream Processor detects an error while a transm
1072:D:\dholler\Dokumente\uni\bus\xmc\usbCanNode\Libraries\XMCLib\inc\xmc_can.h ****  *	running, the Transmit Error Counter is incremented by 8. An increment of 1 is used when the erro
1073:D:\dholler\Dokumente\uni\bus\xmc\usbCanNode\Libraries\XMCLib\inc\xmc_can.h ****  *	reported by an external CAN node via an Error Frame generation. It reads NECNT register.
1074:D:\dholler\Dokumente\uni\bus\xmc\usbCanNode\Libraries\XMCLib\inc\xmc_can.h ****  *
1075:D:\dholler\Dokumente\uni\bus\xmc\usbCanNode\Libraries\XMCLib\inc\xmc_can.h ****  * \par<b>Related APIs:</b><BR>
1076:D:\dholler\Dokumente\uni\bus\xmc\usbCanNode\Libraries\XMCLib\inc\xmc_can.h ****  * XMC_CAN_NODE_SetTransmitErrorCounter()
1077:D:\dholler\Dokumente\uni\bus\xmc\usbCanNode\Libraries\XMCLib\inc\xmc_can.h ****  *
1078:D:\dholler\Dokumente\uni\bus\xmc\usbCanNode\Libraries\XMCLib\inc\xmc_can.h ****  * \par<b>Note:</b><br>
1079:D:\dholler\Dokumente\uni\bus\xmc\usbCanNode\Libraries\XMCLib\inc\xmc_can.h ****  *  NECNTx can be written only if bit NCRx.CCE is set.
1080:D:\dholler\Dokumente\uni\bus\xmc\usbCanNode\Libraries\XMCLib\inc\xmc_can.h ****  *
1081:D:\dholler\Dokumente\uni\bus\xmc\usbCanNode\Libraries\XMCLib\inc\xmc_can.h ****  */
1082:D:\dholler\Dokumente\uni\bus\xmc\usbCanNode\Libraries\XMCLib\inc\xmc_can.h **** 
1083:D:\dholler\Dokumente\uni\bus\xmc\usbCanNode\Libraries\XMCLib\inc\xmc_can.h **** __STATIC_INLINE uint8_t XMC_CAN_NODE_GetTransmitErrorCounter(XMC_CAN_NODE_t *const can_node)
1084:D:\dholler\Dokumente\uni\bus\xmc\usbCanNode\Libraries\XMCLib\inc\xmc_can.h **** {
1085:D:\dholler\Dokumente\uni\bus\xmc\usbCanNode\Libraries\XMCLib\inc\xmc_can.h ****   return (uint8_t)((uint32_t)((can_node->NECNT)  & CAN_NODE_NECNT_TEC_Msk) >> CAN_NODE_NECNT_TEC_Po
1086:D:\dholler\Dokumente\uni\bus\xmc\usbCanNode\Libraries\XMCLib\inc\xmc_can.h **** }
1087:D:\dholler\Dokumente\uni\bus\xmc\usbCanNode\Libraries\XMCLib\inc\xmc_can.h **** 
1088:D:\dholler\Dokumente\uni\bus\xmc\usbCanNode\Libraries\XMCLib\inc\xmc_can.h **** 
1089:D:\dholler\Dokumente\uni\bus\xmc\usbCanNode\Libraries\XMCLib\inc\xmc_can.h **** /**
1090:D:\dholler\Dokumente\uni\bus\xmc\usbCanNode\Libraries\XMCLib\inc\xmc_can.h ****  *
1091:D:\dholler\Dokumente\uni\bus\xmc\usbCanNode\Libraries\XMCLib\inc\xmc_can.h ****  * @param can_node Pointer Pointing to CAN_NODE Structure. Defines CAN_NODE registers, Range :CAN_N
1092:D:\dholler\Dokumente\uni\bus\xmc\usbCanNode\Libraries\XMCLib\inc\xmc_can.h ****  *
1093:D:\dholler\Dokumente\uni\bus\xmc\usbCanNode\Libraries\XMCLib\inc\xmc_can.h ****  * @return uint8_t	receive error counter value.
1094:D:\dholler\Dokumente\uni\bus\xmc\usbCanNode\Libraries\XMCLib\inc\xmc_can.h ****  *
1095:D:\dholler\Dokumente\uni\bus\xmc\usbCanNode\Libraries\XMCLib\inc\xmc_can.h ****  * \par<b>Description:</b><br>
1096:D:\dholler\Dokumente\uni\bus\xmc\usbCanNode\Libraries\XMCLib\inc\xmc_can.h ****  *	Returns Receive Error Counter value. It reads NECNT register.
1097:D:\dholler\Dokumente\uni\bus\xmc\usbCanNode\Libraries\XMCLib\inc\xmc_can.h ****  *
1098:D:\dholler\Dokumente\uni\bus\xmc\usbCanNode\Libraries\XMCLib\inc\xmc_can.h ****  * \par<b>Related APIs:</b><BR>
1099:D:\dholler\Dokumente\uni\bus\xmc\usbCanNode\Libraries\XMCLib\inc\xmc_can.h ****  * XMC_CAN_NODE_SetReceiveErrorCounter()
1100:D:\dholler\Dokumente\uni\bus\xmc\usbCanNode\Libraries\XMCLib\inc\xmc_can.h ****  *
1101:D:\dholler\Dokumente\uni\bus\xmc\usbCanNode\Libraries\XMCLib\inc\xmc_can.h ****  */
1102:D:\dholler\Dokumente\uni\bus\xmc\usbCanNode\Libraries\XMCLib\inc\xmc_can.h **** 
1103:D:\dholler\Dokumente\uni\bus\xmc\usbCanNode\Libraries\XMCLib\inc\xmc_can.h **** __STATIC_INLINE uint8_t XMC_CAN_NODE_GetReceiveErrorCounter(XMC_CAN_NODE_t *const can_node)
1104:D:\dholler\Dokumente\uni\bus\xmc\usbCanNode\Libraries\XMCLib\inc\xmc_can.h **** {
1105:D:\dholler\Dokumente\uni\bus\xmc\usbCanNode\Libraries\XMCLib\inc\xmc_can.h ****   return (uint8_t)((uint32_t)((can_node->NECNT)  & CAN_NODE_NECNT_REC_Msk) >> CAN_NODE_NECNT_REC_Po
1106:D:\dholler\Dokumente\uni\bus\xmc\usbCanNode\Libraries\XMCLib\inc\xmc_can.h **** }
1107:D:\dholler\Dokumente\uni\bus\xmc\usbCanNode\Libraries\XMCLib\inc\xmc_can.h **** 
1108:D:\dholler\Dokumente\uni\bus\xmc\usbCanNode\Libraries\XMCLib\inc\xmc_can.h **** 
1109:D:\dholler\Dokumente\uni\bus\xmc\usbCanNode\Libraries\XMCLib\inc\xmc_can.h **** /**
1110:D:\dholler\Dokumente\uni\bus\xmc\usbCanNode\Libraries\XMCLib\inc\xmc_can.h ****  *
1111:D:\dholler\Dokumente\uni\bus\xmc\usbCanNode\Libraries\XMCLib\inc\xmc_can.h ****  * @param can_node Pointer Pointing to CAN_NODE Structure. Defines CAN_NODE registers, Range :CAN_N
1112:D:\dholler\Dokumente\uni\bus\xmc\usbCanNode\Libraries\XMCLib\inc\xmc_can.h ****  *
1113:D:\dholler\Dokumente\uni\bus\xmc\usbCanNode\Libraries\XMCLib\inc\xmc_can.h ****  * @return uint32_t Current status of the node.
1114:D:\dholler\Dokumente\uni\bus\xmc\usbCanNode\Libraries\XMCLib\inc\xmc_can.h ****  *
1115:D:\dholler\Dokumente\uni\bus\xmc\usbCanNode\Libraries\XMCLib\inc\xmc_can.h ****  * \par<b>Description:</b><br>
1116:D:\dholler\Dokumente\uni\bus\xmc\usbCanNode\Libraries\XMCLib\inc\xmc_can.h ****  * Returns errors status as well as successfully transferred CAN frames status.
1117:D:\dholler\Dokumente\uni\bus\xmc\usbCanNode\Libraries\XMCLib\inc\xmc_can.h ****  *
1118:D:\dholler\Dokumente\uni\bus\xmc\usbCanNode\Libraries\XMCLib\inc\xmc_can.h ****  * \par<b>Related APIs:</b><BR>
1119:D:\dholler\Dokumente\uni\bus\xmc\usbCanNode\Libraries\XMCLib\inc\xmc_can.h ****  *  XMC_CAN_NODE_ClearStatus()
1120:D:\dholler\Dokumente\uni\bus\xmc\usbCanNode\Libraries\XMCLib\inc\xmc_can.h ****  *
1121:D:\dholler\Dokumente\uni\bus\xmc\usbCanNode\Libraries\XMCLib\inc\xmc_can.h ****  */
1122:D:\dholler\Dokumente\uni\bus\xmc\usbCanNode\Libraries\XMCLib\inc\xmc_can.h **** 
1123:D:\dholler\Dokumente\uni\bus\xmc\usbCanNode\Libraries\XMCLib\inc\xmc_can.h **** __STATIC_INLINE uint32_t XMC_CAN_NODE_GetStatus(XMC_CAN_NODE_t *const can_node)
1124:D:\dholler\Dokumente\uni\bus\xmc\usbCanNode\Libraries\XMCLib\inc\xmc_can.h **** {
1125:D:\dholler\Dokumente\uni\bus\xmc\usbCanNode\Libraries\XMCLib\inc\xmc_can.h ****   return ((can_node->NSR));
1126:D:\dholler\Dokumente\uni\bus\xmc\usbCanNode\Libraries\XMCLib\inc\xmc_can.h **** }
1127:D:\dholler\Dokumente\uni\bus\xmc\usbCanNode\Libraries\XMCLib\inc\xmc_can.h **** 
1128:D:\dholler\Dokumente\uni\bus\xmc\usbCanNode\Libraries\XMCLib\inc\xmc_can.h **** /**
1129:D:\dholler\Dokumente\uni\bus\xmc\usbCanNode\Libraries\XMCLib\inc\xmc_can.h ****  *
1130:D:\dholler\Dokumente\uni\bus\xmc\usbCanNode\Libraries\XMCLib\inc\xmc_can.h ****  * @param can_node Pointer Pointing to CAN_NODE Structure. Defines CAN_NODE registers, Range :CAN_N
1131:D:\dholler\Dokumente\uni\bus\xmc\usbCanNode\Libraries\XMCLib\inc\xmc_can.h ****  * @param can_node_status Status to clear.Refer @ref XMC_CAN_NODE_STATUS_t for valid values.
1132:D:\dholler\Dokumente\uni\bus\xmc\usbCanNode\Libraries\XMCLib\inc\xmc_can.h ****  *
1133:D:\dholler\Dokumente\uni\bus\xmc\usbCanNode\Libraries\XMCLib\inc\xmc_can.h ****  * @return None
1134:D:\dholler\Dokumente\uni\bus\xmc\usbCanNode\Libraries\XMCLib\inc\xmc_can.h ****  *
1135:D:\dholler\Dokumente\uni\bus\xmc\usbCanNode\Libraries\XMCLib\inc\xmc_can.h ****  * \par<b>Description:</b><br>
1136:D:\dholler\Dokumente\uni\bus\xmc\usbCanNode\Libraries\XMCLib\inc\xmc_can.h ****  * Clear errors status as well as successfully transferred CAN frames status.
1137:D:\dholler\Dokumente\uni\bus\xmc\usbCanNode\Libraries\XMCLib\inc\xmc_can.h ****  *
1138:D:\dholler\Dokumente\uni\bus\xmc\usbCanNode\Libraries\XMCLib\inc\xmc_can.h ****  * \par<b>Related APIs:</b><BR>
1139:D:\dholler\Dokumente\uni\bus\xmc\usbCanNode\Libraries\XMCLib\inc\xmc_can.h ****  * XMC_CAN_NODE_GetStatus()
1140:D:\dholler\Dokumente\uni\bus\xmc\usbCanNode\Libraries\XMCLib\inc\xmc_can.h ****  *
1141:D:\dholler\Dokumente\uni\bus\xmc\usbCanNode\Libraries\XMCLib\inc\xmc_can.h ****  */
1142:D:\dholler\Dokumente\uni\bus\xmc\usbCanNode\Libraries\XMCLib\inc\xmc_can.h **** 
1143:D:\dholler\Dokumente\uni\bus\xmc\usbCanNode\Libraries\XMCLib\inc\xmc_can.h **** __STATIC_INLINE void XMC_CAN_NODE_ClearStatus(XMC_CAN_NODE_t *const can_node,XMC_CAN_NODE_STATUS_t 
1144:D:\dholler\Dokumente\uni\bus\xmc\usbCanNode\Libraries\XMCLib\inc\xmc_can.h **** {
1145:D:\dholler\Dokumente\uni\bus\xmc\usbCanNode\Libraries\XMCLib\inc\xmc_can.h ****    can_node->NSR &= ~(uint32_t)can_node_status;
1146:D:\dholler\Dokumente\uni\bus\xmc\usbCanNode\Libraries\XMCLib\inc\xmc_can.h **** }
1147:D:\dholler\Dokumente\uni\bus\xmc\usbCanNode\Libraries\XMCLib\inc\xmc_can.h **** 
1148:D:\dholler\Dokumente\uni\bus\xmc\usbCanNode\Libraries\XMCLib\inc\xmc_can.h **** 
1149:D:\dholler\Dokumente\uni\bus\xmc\usbCanNode\Libraries\XMCLib\inc\xmc_can.h **** /**
1150:D:\dholler\Dokumente\uni\bus\xmc\usbCanNode\Libraries\XMCLib\inc\xmc_can.h ****  *
1151:D:\dholler\Dokumente\uni\bus\xmc\usbCanNode\Libraries\XMCLib\inc\xmc_can.h ****  * @param can_node Pointer Pointing to CAN_NODE Structure. Defines CAN_NODE registers, Range :CAN_N
1152:D:\dholler\Dokumente\uni\bus\xmc\usbCanNode\Libraries\XMCLib\inc\xmc_can.h ****  *
1153:D:\dholler\Dokumente\uni\bus\xmc\usbCanNode\Libraries\XMCLib\inc\xmc_can.h ****  * @return None
1154:D:\dholler\Dokumente\uni\bus\xmc\usbCanNode\Libraries\XMCLib\inc\xmc_can.h ****  *
1155:D:\dholler\Dokumente\uni\bus\xmc\usbCanNode\Libraries\XMCLib\inc\xmc_can.h ****  * \par<b>Description:</b><br>
1156:D:\dholler\Dokumente\uni\bus\xmc\usbCanNode\Libraries\XMCLib\inc\xmc_can.h ****  * Allow to change the configuration of the CAN node, like bit timing, CAN bus transmit/receive por
1157:D:\dholler\Dokumente\uni\bus\xmc\usbCanNode\Libraries\XMCLib\inc\xmc_can.h ****  * counters read. It configures NCRx.CCE bit.
1158:D:\dholler\Dokumente\uni\bus\xmc\usbCanNode\Libraries\XMCLib\inc\xmc_can.h ****  *
1159:D:\dholler\Dokumente\uni\bus\xmc\usbCanNode\Libraries\XMCLib\inc\xmc_can.h ****  * \par<b>Related APIs:</b><BR>
1160:D:\dholler\Dokumente\uni\bus\xmc\usbCanNode\Libraries\XMCLib\inc\xmc_can.h ****  * XMC_CAN_NODE_DisableConfigurationChange()
1161:D:\dholler\Dokumente\uni\bus\xmc\usbCanNode\Libraries\XMCLib\inc\xmc_can.h ****  *
1162:D:\dholler\Dokumente\uni\bus\xmc\usbCanNode\Libraries\XMCLib\inc\xmc_can.h ****  */
1163:D:\dholler\Dokumente\uni\bus\xmc\usbCanNode\Libraries\XMCLib\inc\xmc_can.h **** 
1164:D:\dholler\Dokumente\uni\bus\xmc\usbCanNode\Libraries\XMCLib\inc\xmc_can.h **** __STATIC_INLINE void XMC_CAN_NODE_EnableConfigurationChange(XMC_CAN_NODE_t *const can_node)
1165:D:\dholler\Dokumente\uni\bus\xmc\usbCanNode\Libraries\XMCLib\inc\xmc_can.h **** {
  91              	 .loc 1 1165 0
  92              	 .cfi_startproc
  93              	 
  94              	 
  95              	 
  96 0000 80B4     	 push {r7}
  97              	.LCFI6:
  98              	 .cfi_def_cfa_offset 4
  99              	 .cfi_offset 7,-4
 100 0002 83B0     	 sub sp,sp,#12
 101              	.LCFI7:
 102              	 .cfi_def_cfa_offset 16
 103 0004 00AF     	 add r7,sp,#0
 104              	.LCFI8:
 105              	 .cfi_def_cfa_register 7
 106 0006 7860     	 str r0,[r7,#4]
1166:D:\dholler\Dokumente\uni\bus\xmc\usbCanNode\Libraries\XMCLib\inc\xmc_can.h ****   can_node->NCR |= (uint32_t)CAN_NODE_NCR_CCE_Msk;
 107              	 .loc 1 1166 0
 108 0008 7B68     	 ldr r3,[r7,#4]
 109 000a 1B68     	 ldr r3,[r3]
 110 000c 43F04002 	 orr r2,r3,#64
 111 0010 7B68     	 ldr r3,[r7,#4]
 112 0012 1A60     	 str r2,[r3]
1167:D:\dholler\Dokumente\uni\bus\xmc\usbCanNode\Libraries\XMCLib\inc\xmc_can.h **** }
 113              	 .loc 1 1167 0
 114 0014 0C37     	 adds r7,r7,#12
 115              	.LCFI9:
 116              	 .cfi_def_cfa_offset 4
 117 0016 BD46     	 mov sp,r7
 118              	.LCFI10:
 119              	 .cfi_def_cfa_register 13
 120              	 
 121 0018 5DF8047B 	 ldr r7,[sp],#4
 122              	.LCFI11:
 123              	 .cfi_restore 7
 124              	 .cfi_def_cfa_offset 0
 125 001c 7047     	 bx lr
 126              	 .cfi_endproc
 127              	.LFE169:
 129 001e 00BF     	 .section .text.XMC_CAN_NODE_DisableConfigurationChange,"ax",%progbits
 130              	 .align 2
 131              	 .thumb
 132              	 .thumb_func
 134              	XMC_CAN_NODE_DisableConfigurationChange:
 135              	.LFB170:
1168:D:\dholler\Dokumente\uni\bus\xmc\usbCanNode\Libraries\XMCLib\inc\xmc_can.h **** 
1169:D:\dholler\Dokumente\uni\bus\xmc\usbCanNode\Libraries\XMCLib\inc\xmc_can.h **** 
1170:D:\dholler\Dokumente\uni\bus\xmc\usbCanNode\Libraries\XMCLib\inc\xmc_can.h **** /**
1171:D:\dholler\Dokumente\uni\bus\xmc\usbCanNode\Libraries\XMCLib\inc\xmc_can.h ****  *
1172:D:\dholler\Dokumente\uni\bus\xmc\usbCanNode\Libraries\XMCLib\inc\xmc_can.h ****  * @param can_node Pointer Pointing to CAN_NODE Structure. Defines CAN_NODE registers, Range :CAN_N
1173:D:\dholler\Dokumente\uni\bus\xmc\usbCanNode\Libraries\XMCLib\inc\xmc_can.h ****  *
1174:D:\dholler\Dokumente\uni\bus\xmc\usbCanNode\Libraries\XMCLib\inc\xmc_can.h ****  * @return None
1175:D:\dholler\Dokumente\uni\bus\xmc\usbCanNode\Libraries\XMCLib\inc\xmc_can.h ****  *
1176:D:\dholler\Dokumente\uni\bus\xmc\usbCanNode\Libraries\XMCLib\inc\xmc_can.h ****  * \par<b>Description:</b><br>
1177:D:\dholler\Dokumente\uni\bus\xmc\usbCanNode\Libraries\XMCLib\inc\xmc_can.h ****  *	Forbid to change the configuration of the CAN node. It configures NCRx.CCE bit.
1178:D:\dholler\Dokumente\uni\bus\xmc\usbCanNode\Libraries\XMCLib\inc\xmc_can.h ****  *
1179:D:\dholler\Dokumente\uni\bus\xmc\usbCanNode\Libraries\XMCLib\inc\xmc_can.h ****  * \par<b>Related API's:</b><br>
1180:D:\dholler\Dokumente\uni\bus\xmc\usbCanNode\Libraries\XMCLib\inc\xmc_can.h ****  * XMC_CAN_NODE_EnableConfigurationChange()
1181:D:\dholler\Dokumente\uni\bus\xmc\usbCanNode\Libraries\XMCLib\inc\xmc_can.h ****  *
1182:D:\dholler\Dokumente\uni\bus\xmc\usbCanNode\Libraries\XMCLib\inc\xmc_can.h ****  */
1183:D:\dholler\Dokumente\uni\bus\xmc\usbCanNode\Libraries\XMCLib\inc\xmc_can.h **** 
1184:D:\dholler\Dokumente\uni\bus\xmc\usbCanNode\Libraries\XMCLib\inc\xmc_can.h **** __STATIC_INLINE void XMC_CAN_NODE_DisableConfigurationChange(XMC_CAN_NODE_t *const can_node)
1185:D:\dholler\Dokumente\uni\bus\xmc\usbCanNode\Libraries\XMCLib\inc\xmc_can.h **** {
 136              	 .loc 1 1185 0
 137              	 .cfi_startproc
 138              	 
 139              	 
 140              	 
 141 0000 80B4     	 push {r7}
 142              	.LCFI12:
 143              	 .cfi_def_cfa_offset 4
 144              	 .cfi_offset 7,-4
 145 0002 83B0     	 sub sp,sp,#12
 146              	.LCFI13:
 147              	 .cfi_def_cfa_offset 16
 148 0004 00AF     	 add r7,sp,#0
 149              	.LCFI14:
 150              	 .cfi_def_cfa_register 7
 151 0006 7860     	 str r0,[r7,#4]
1186:D:\dholler\Dokumente\uni\bus\xmc\usbCanNode\Libraries\XMCLib\inc\xmc_can.h ****   can_node->NCR &= ~(uint32_t)CAN_NODE_NCR_CCE_Msk;
 152              	 .loc 1 1186 0
 153 0008 7B68     	 ldr r3,[r7,#4]
 154 000a 1B68     	 ldr r3,[r3]
 155 000c 23F04002 	 bic r2,r3,#64
 156 0010 7B68     	 ldr r3,[r7,#4]
 157 0012 1A60     	 str r2,[r3]
1187:D:\dholler\Dokumente\uni\bus\xmc\usbCanNode\Libraries\XMCLib\inc\xmc_can.h **** }
 158              	 .loc 1 1187 0
 159 0014 0C37     	 adds r7,r7,#12
 160              	.LCFI15:
 161              	 .cfi_def_cfa_offset 4
 162 0016 BD46     	 mov sp,r7
 163              	.LCFI16:
 164              	 .cfi_def_cfa_register 13
 165              	 
 166 0018 5DF8047B 	 ldr r7,[sp],#4
 167              	.LCFI17:
 168              	 .cfi_restore 7
 169              	 .cfi_def_cfa_offset 0
 170 001c 7047     	 bx lr
 171              	 .cfi_endproc
 172              	.LFE170:
 174 001e 00BF     	 .section .text.max,"ax",%progbits
 175              	 .align 2
 176              	 .thumb
 177              	 .thumb_func
 179              	max:
 180              	.LFB205:
 181              	 .file 2 "../Libraries/XMCLib/src/xmc_can.c"
   1:../Libraries/XMCLib/src/xmc_can.c **** /**
   2:../Libraries/XMCLib/src/xmc_can.c ****  * @file xmc_can.c
   3:../Libraries/XMCLib/src/xmc_can.c ****  * @date 2016-01-12
   4:../Libraries/XMCLib/src/xmc_can.c ****  *
   5:../Libraries/XMCLib/src/xmc_can.c ****  * @cond
   6:../Libraries/XMCLib/src/xmc_can.c ****  **************************************************************************************************
   7:../Libraries/XMCLib/src/xmc_can.c ****  * XMClib v2.1.6 - XMC Peripheral Driver Library 
   8:../Libraries/XMCLib/src/xmc_can.c ****  *
   9:../Libraries/XMCLib/src/xmc_can.c ****  * Copyright (c) 2015-2016, Infineon Technologies AG
  10:../Libraries/XMCLib/src/xmc_can.c ****  * All rights reserved.                        
  11:../Libraries/XMCLib/src/xmc_can.c ****  *                                             
  12:../Libraries/XMCLib/src/xmc_can.c ****  * Redistribution and use in source and binary forms, with or without modification,are permitted pr
  13:../Libraries/XMCLib/src/xmc_can.c ****  * following conditions are met:   
  14:../Libraries/XMCLib/src/xmc_can.c ****  *                                                                              
  15:../Libraries/XMCLib/src/xmc_can.c ****  * Redistributions of source code must retain the above copyright notice, this list of conditions a
  16:../Libraries/XMCLib/src/xmc_can.c ****  * disclaimer.                        
  17:../Libraries/XMCLib/src/xmc_can.c ****  * 
  18:../Libraries/XMCLib/src/xmc_can.c ****  * Redistributions in binary form must reproduce the above copyright notice, this list of condition
  19:../Libraries/XMCLib/src/xmc_can.c ****  * disclaimer in the documentation and/or other materials provided with the distribution.          
  20:../Libraries/XMCLib/src/xmc_can.c ****  * 
  21:../Libraries/XMCLib/src/xmc_can.c ****  * Neither the name of the copyright holders nor the names of its contributors may be used to endor
  22:../Libraries/XMCLib/src/xmc_can.c ****  * products derived from this software without specific prior written permission.                  
  23:../Libraries/XMCLib/src/xmc_can.c ****  *                                                                              
  24:../Libraries/XMCLib/src/xmc_can.c ****  * THIS SOFTWARE IS PROVIDED BY THE COPYRIGHT HOLDERS AND CONTRIBUTORS "AS IS" AND ANY EXPRESS OR I
  25:../Libraries/XMCLib/src/xmc_can.c ****  * INCLUDING, BUT NOT LIMITED TO, THE IMPLIED WARRANTIES OF MERCHANTABILITY AND FITNESS FOR A PARTI
  26:../Libraries/XMCLib/src/xmc_can.c ****  * DISCLAIMED. IN NO EVENT SHALL THE COPYRIGHT HOLDER OR CONTRIBUTORS BE LIABLE  FOR ANY DIRECT, IN
  27:../Libraries/XMCLib/src/xmc_can.c ****  * SPECIAL, EXEMPLARY, OR CONSEQUENTIAL DAMAGES (INCLUDING, BUT NOT LIMITED TO, PROCUREMENT OF SUBS
  28:../Libraries/XMCLib/src/xmc_can.c ****  * SERVICES; LOSS OF USE, DATA, OR PROFITS; OR BUSINESS INTERRUPTION) HOWEVER CAUSED AND ON ANY THE
  29:../Libraries/XMCLib/src/xmc_can.c ****  * WHETHER IN CONTRACT, STRICT LIABILITY,OR TORT (INCLUDING NEGLIGENCE OR OTHERWISE) ARISING IN ANY
  30:../Libraries/XMCLib/src/xmc_can.c ****  * OF THIS SOFTWARE, EVEN IF ADVISED OF THE POSSIBILITY OF SUCH DAMAGE.                            
  31:../Libraries/XMCLib/src/xmc_can.c ****  *                                                                              
  32:../Libraries/XMCLib/src/xmc_can.c ****  * To improve the quality of the software, users are encouraged to share modifications, enhancement
  33:../Libraries/XMCLib/src/xmc_can.c ****  * Infineon Technologies AG dave@infineon.com).                                                    
  34:../Libraries/XMCLib/src/xmc_can.c ****  **************************************************************************************************
  35:../Libraries/XMCLib/src/xmc_can.c ****  *
  36:../Libraries/XMCLib/src/xmc_can.c ****  * Change History
  37:../Libraries/XMCLib/src/xmc_can.c ****  * --------------
  38:../Libraries/XMCLib/src/xmc_can.c ****  *
  39:../Libraries/XMCLib/src/xmc_can.c ****  * 2015-02-20:
  40:../Libraries/XMCLib/src/xmc_can.c ****  *     - Initial draft <br>
  41:../Libraries/XMCLib/src/xmc_can.c ****  *
  42:../Libraries/XMCLib/src/xmc_can.c ****  * 2015-05-20:
  43:../Libraries/XMCLib/src/xmc_can.c ****  *     - New API added: XMC_CAN_MO_ReceiveData() <br>
  44:../Libraries/XMCLib/src/xmc_can.c ****  *     - XMC_CAN_MO_Config() signature has changed <br>
  45:../Libraries/XMCLib/src/xmc_can.c ****  *     - Minor fix in XMC_CAN_TXFIFO_ConfigMOSlaveObject(). <br>
  46:../Libraries/XMCLib/src/xmc_can.c ****  *
  47:../Libraries/XMCLib/src/xmc_can.c ****  * 2015-06-20:
  48:../Libraries/XMCLib/src/xmc_can.c ****  *     - Removed version macros and declaration of GetDriverVersion API
  49:../Libraries/XMCLib/src/xmc_can.c ****  *
  50:../Libraries/XMCLib/src/xmc_can.c ****  * 2015-09-01:
  51:../Libraries/XMCLib/src/xmc_can.c ****  *     - Removed  fCANB clock support <br>
  52:../Libraries/XMCLib/src/xmc_can.c ****  *
  53:../Libraries/XMCLib/src/xmc_can.c ****  * 2015-09-08:
  54:../Libraries/XMCLib/src/xmc_can.c ****  *     - Fixed bug in XMC_CAN_Init() <br>
  55:../Libraries/XMCLib/src/xmc_can.c ****  *
  56:../Libraries/XMCLib/src/xmc_can.c ****  * @endcond
  57:../Libraries/XMCLib/src/xmc_can.c ****  *
  58:../Libraries/XMCLib/src/xmc_can.c ****  */ 
  59:../Libraries/XMCLib/src/xmc_can.c **** 
  60:../Libraries/XMCLib/src/xmc_can.c **** /*******************************************************************************
  61:../Libraries/XMCLib/src/xmc_can.c ****  * HEADER FILES
  62:../Libraries/XMCLib/src/xmc_can.c ****  *******************************************************************************/
  63:../Libraries/XMCLib/src/xmc_can.c **** #include "xmc_can.h"
  64:../Libraries/XMCLib/src/xmc_can.c **** 
  65:../Libraries/XMCLib/src/xmc_can.c **** #if defined(CAN)
  66:../Libraries/XMCLib/src/xmc_can.c **** #include "xmc_scu.h"
  67:../Libraries/XMCLib/src/xmc_can.c **** 
  68:../Libraries/XMCLib/src/xmc_can.c **** __STATIC_INLINE uint32_t max(uint32_t a, uint32_t b)
  69:../Libraries/XMCLib/src/xmc_can.c **** {
 182              	 .loc 2 69 0
 183              	 .cfi_startproc
 184              	 
 185              	 
 186              	 
 187 0000 80B4     	 push {r7}
 188              	.LCFI18:
 189              	 .cfi_def_cfa_offset 4
 190              	 .cfi_offset 7,-4
 191 0002 83B0     	 sub sp,sp,#12
 192              	.LCFI19:
 193              	 .cfi_def_cfa_offset 16
 194 0004 00AF     	 add r7,sp,#0
 195              	.LCFI20:
 196              	 .cfi_def_cfa_register 7
 197 0006 7860     	 str r0,[r7,#4]
 198 0008 3960     	 str r1,[r7]
  70:../Libraries/XMCLib/src/xmc_can.c ****   return (a > b) ? a : b;
 199              	 .loc 2 70 0
 200 000a 3A68     	 ldr r2,[r7]
 201 000c 7B68     	 ldr r3,[r7,#4]
 202 000e 9342     	 cmp r3,r2
 203 0010 38BF     	 it cc
 204 0012 1346     	 movcc r3,r2
  71:../Libraries/XMCLib/src/xmc_can.c **** }
 205              	 .loc 2 71 0
 206 0014 1846     	 mov r0,r3
 207 0016 0C37     	 adds r7,r7,#12
 208              	.LCFI21:
 209              	 .cfi_def_cfa_offset 4
 210 0018 BD46     	 mov sp,r7
 211              	.LCFI22:
 212              	 .cfi_def_cfa_register 13
 213              	 
 214 001a 5DF8047B 	 ldr r7,[sp],#4
 215              	.LCFI23:
 216              	 .cfi_restore 7
 217              	 .cfi_def_cfa_offset 0
 218 001e 7047     	 bx lr
 219              	 .cfi_endproc
 220              	.LFE205:
 222              	 .section .text.min,"ax",%progbits
 223              	 .align 2
 224              	 .thumb
 225              	 .thumb_func
 227              	min:
 228              	.LFB206:
  72:../Libraries/XMCLib/src/xmc_can.c **** 
  73:../Libraries/XMCLib/src/xmc_can.c **** __STATIC_INLINE uint32_t min(uint32_t a, uint32_t b)
  74:../Libraries/XMCLib/src/xmc_can.c **** {
 229              	 .loc 2 74 0
 230              	 .cfi_startproc
 231              	 
 232              	 
 233              	 
 234 0000 80B4     	 push {r7}
 235              	.LCFI24:
 236              	 .cfi_def_cfa_offset 4
 237              	 .cfi_offset 7,-4
 238 0002 83B0     	 sub sp,sp,#12
 239              	.LCFI25:
 240              	 .cfi_def_cfa_offset 16
 241 0004 00AF     	 add r7,sp,#0
 242              	.LCFI26:
 243              	 .cfi_def_cfa_register 7
 244 0006 7860     	 str r0,[r7,#4]
 245 0008 3960     	 str r1,[r7]
  75:../Libraries/XMCLib/src/xmc_can.c ****   return (a < b) ? a : b;
 246              	 .loc 2 75 0
 247 000a 3A68     	 ldr r2,[r7]
 248 000c 7B68     	 ldr r3,[r7,#4]
 249 000e 9342     	 cmp r3,r2
 250 0010 28BF     	 it cs
 251 0012 1346     	 movcs r3,r2
  76:../Libraries/XMCLib/src/xmc_can.c **** }
 252              	 .loc 2 76 0
 253 0014 1846     	 mov r0,r3
 254 0016 0C37     	 adds r7,r7,#12
 255              	.LCFI27:
 256              	 .cfi_def_cfa_offset 4
 257 0018 BD46     	 mov sp,r7
 258              	.LCFI28:
 259              	 .cfi_def_cfa_register 13
 260              	 
 261 001a 5DF8047B 	 ldr r7,[sp],#4
 262              	.LCFI29:
 263              	 .cfi_restore 7
 264              	 .cfi_def_cfa_offset 0
 265 001e 7047     	 bx lr
 266              	 .cfi_endproc
 267              	.LFE206:
 269              	 .section .text.XMC_CAN_NODE_NominalBitTimeConfigure,"ax",%progbits
 270              	 .align 2
 271              	 .global XMC_CAN_NODE_NominalBitTimeConfigure
 272              	 .thumb
 273              	 .thumb_func
 275              	XMC_CAN_NODE_NominalBitTimeConfigure:
 276              	.LFB207:
  77:../Libraries/XMCLib/src/xmc_can.c **** 
  78:../Libraries/XMCLib/src/xmc_can.c **** /*******************************************************************************
  79:../Libraries/XMCLib/src/xmc_can.c ****  * API IMPLEMENTATION
  80:../Libraries/XMCLib/src/xmc_can.c ****  *******************************************************************************/
  81:../Libraries/XMCLib/src/xmc_can.c **** 
  82:../Libraries/XMCLib/src/xmc_can.c **** /* Baudrate Configuration */
  83:../Libraries/XMCLib/src/xmc_can.c **** void XMC_CAN_NODE_NominalBitTimeConfigure (XMC_CAN_NODE_t *const can_node,
  84:../Libraries/XMCLib/src/xmc_can.c ****                                            const XMC_CAN_NODE_NOMINAL_BIT_TIME_CONFIG_t *const can_
  85:../Libraries/XMCLib/src/xmc_can.c **** {
 277              	 .loc 2 85 0
 278              	 .cfi_startproc
 279              	 
 280              	 
 281 0000 80B5     	 push {r7,lr}
 282              	.LCFI30:
 283              	 .cfi_def_cfa_offset 8
 284              	 .cfi_offset 7,-8
 285              	 .cfi_offset 14,-4
 286 0002 90B0     	 sub sp,sp,#64
 287              	.LCFI31:
 288              	 .cfi_def_cfa_offset 72
 289 0004 00AF     	 add r7,sp,#0
 290              	.LCFI32:
 291              	 .cfi_def_cfa_register 7
 292 0006 7860     	 str r0,[r7,#4]
 293 0008 3960     	 str r1,[r7]
  86:../Libraries/XMCLib/src/xmc_can.c ****   uint32_t temp_brp = 12U ;
 294              	 .loc 2 86 0
 295 000a 0C23     	 movs r3,#12
 296 000c FB63     	 str r3,[r7,#60]
  87:../Libraries/XMCLib/src/xmc_can.c ****   uint32_t temp_tseg1 = 12U;
 297              	 .loc 2 87 0
 298 000e 0C23     	 movs r3,#12
 299 0010 BB63     	 str r3,[r7,#56]
  88:../Libraries/XMCLib/src/xmc_can.c ****   uint32_t best_brp = 0U;
 300              	 .loc 2 88 0
 301 0012 0023     	 movs r3,#0
 302 0014 7B63     	 str r3,[r7,#52]
  89:../Libraries/XMCLib/src/xmc_can.c ****   uint32_t best_tseg1 = 1U;
 303              	 .loc 2 89 0
 304 0016 0123     	 movs r3,#1
 305 0018 3B63     	 str r3,[r7,#48]
  90:../Libraries/XMCLib/src/xmc_can.c ****   uint32_t best_tseg2 = 0U;
 306              	 .loc 2 90 0
 307 001a 0023     	 movs r3,#0
 308 001c 7B61     	 str r3,[r7,#20]
  91:../Libraries/XMCLib/src/xmc_can.c ****   uint32_t best_tbaud = 0U;
 309              	 .loc 2 91 0
 310 001e 0023     	 movs r3,#0
 311 0020 FB62     	 str r3,[r7,#44]
  92:../Libraries/XMCLib/src/xmc_can.c ****   uint32_t best_error = 10000U;
 312              	 .loc 2 92 0
 313 0022 42F21073 	 movw r3,#10000
 314 0026 BB62     	 str r3,[r7,#40]
  93:../Libraries/XMCLib/src/xmc_can.c **** 
  94:../Libraries/XMCLib/src/xmc_can.c ****   XMC_ASSERT("XMC_CAN_NODE_NOMINAL_BIT_TIME_Configure: rate not supported", (can_bit_time->baudrate
  95:../Libraries/XMCLib/src/xmc_can.c ****              (can_bit_time->baudrate >= 100000U));
  96:../Libraries/XMCLib/src/xmc_can.c ****   XMC_ASSERT("XMC_CAN_NODE_NOMINAL_BIT_TIME_Configure: fCAN not supported",
  97:../Libraries/XMCLib/src/xmc_can.c ****              can_bit_time->can_frequency <= 120000000U);
  98:../Libraries/XMCLib/src/xmc_can.c ****   XMC_ASSERT("XMC_CAN_NODE_NOMINAL_BIT_TIME_Configure: fCAN not supported",
  99:../Libraries/XMCLib/src/xmc_can.c ****              can_bit_time->can_frequency > 5000000U);
 100:../Libraries/XMCLib/src/xmc_can.c ****   XMC_ASSERT("XMC_CAN_NODE_NOMINAL_BIT_TIME_Configure: sample point not supported",
 101:../Libraries/XMCLib/src/xmc_can.c ****              (can_bit_time->sample_point < 10000U) && ((can_bit_time->sample_point > 0U)));
 102:../Libraries/XMCLib/src/xmc_can.c **** 			 
 103:../Libraries/XMCLib/src/xmc_can.c ****   /*
 104:../Libraries/XMCLib/src/xmc_can.c ****    * Bit timing & sampling
 105:../Libraries/XMCLib/src/xmc_can.c ****    * Tq = (BRP+1)/Fcan if DIV8 = 0
 106:../Libraries/XMCLib/src/xmc_can.c ****    * Tq = 8*(BRP+1)/Fcan if DIV8 = 1
 107:../Libraries/XMCLib/src/xmc_can.c ****    * TSync = 1.Tq
 108:../Libraries/XMCLib/src/xmc_can.c ****    * TSeg1 = (TSEG1+1)*Tq                >= 3Tq
 109:../Libraries/XMCLib/src/xmc_can.c ****    * TSeg2 = (TSEG2+1)*Tq                >= 2Tq
 110:../Libraries/XMCLib/src/xmc_can.c ****    * Bit Time = TSync + TSeg1 + TSeg2    >= 8Tq
 111:../Libraries/XMCLib/src/xmc_can.c ****    *
 112:../Libraries/XMCLib/src/xmc_can.c ****    * Resynchronization:
 113:../Libraries/XMCLib/src/xmc_can.c ****    *
 114:../Libraries/XMCLib/src/xmc_can.c ****    * Tsjw = (SJW + 1)*Tq
 115:../Libraries/XMCLib/src/xmc_can.c ****    * TSeg1 >= Tsjw + Tprop
 116:../Libraries/XMCLib/src/xmc_can.c ****    * TSeg2 >= Tsjw
 117:../Libraries/XMCLib/src/xmc_can.c ****    */
 118:../Libraries/XMCLib/src/xmc_can.c ****   /* search for best baudrate */
 119:../Libraries/XMCLib/src/xmc_can.c ****   for (temp_brp = 1U; temp_brp <= 64U; temp_brp++)
 315              	 .loc 2 119 0
 316 0028 0123     	 movs r3,#1
 317 002a FB63     	 str r3,[r7,#60]
 318 002c 67E0     	 b .L9
 319              	.L18:
 320              	.LBB2:
 120:../Libraries/XMCLib/src/xmc_can.c ****   {
 121:../Libraries/XMCLib/src/xmc_can.c **** 
 122:../Libraries/XMCLib/src/xmc_can.c ****     uint32_t f_quanta = (uint32_t)((can_bit_time->can_frequency * 10U) / temp_brp);
 321              	 .loc 2 122 0
 322 002e 3B68     	 ldr r3,[r7]
 323 0030 1A68     	 ldr r2,[r3]
 324 0032 1346     	 mov r3,r2
 325 0034 9B00     	 lsls r3,r3,#2
 326 0036 1344     	 add r3,r3,r2
 327 0038 5B00     	 lsls r3,r3,#1
 328 003a 1A46     	 mov r2,r3
 329 003c FB6B     	 ldr r3,[r7,#60]
 330 003e B2FBF3F3 	 udiv r3,r2,r3
 331 0042 3B61     	 str r3,[r7,#16]
 123:../Libraries/XMCLib/src/xmc_can.c ****     uint32_t temp_tbaud = (uint32_t)(f_quanta / (can_bit_time->baudrate));
 332              	 .loc 2 123 0
 333 0044 3B68     	 ldr r3,[r7]
 334 0046 5B68     	 ldr r3,[r3,#4]
 335 0048 3A69     	 ldr r2,[r7,#16]
 336 004a B2FBF3F3 	 udiv r3,r2,r3
 337 004e 7B62     	 str r3,[r7,#36]
 124:../Libraries/XMCLib/src/xmc_can.c ****     uint32_t temp_baudrate;
 125:../Libraries/XMCLib/src/xmc_can.c ****     uint32_t error;
 126:../Libraries/XMCLib/src/xmc_can.c **** 
 127:../Libraries/XMCLib/src/xmc_can.c ****   if((temp_tbaud % 10U) > 5U)
 338              	 .loc 2 127 0
 339 0050 796A     	 ldr r1,[r7,#36]
 340 0052 5B4B     	 ldr r3,.L26
 341 0054 A3FB0123 	 umull r2,r3,r3,r1
 342 0058 DA08     	 lsrs r2,r3,#3
 343 005a 1346     	 mov r3,r2
 344 005c 9B00     	 lsls r3,r3,#2
 345 005e 1344     	 add r3,r3,r2
 346 0060 5B00     	 lsls r3,r3,#1
 347 0062 CA1A     	 subs r2,r1,r3
 348 0064 052A     	 cmp r2,#5
 349 0066 09D9     	 bls .L10
 128:../Libraries/XMCLib/src/xmc_can.c ****   {
 129:../Libraries/XMCLib/src/xmc_can.c **** 	temp_tbaud = (uint32_t)(temp_tbaud / 10U);
 350              	 .loc 2 129 0
 351 0068 7B6A     	 ldr r3,[r7,#36]
 352 006a 554A     	 ldr r2,.L26
 353 006c A2FB0323 	 umull r2,r3,r2,r3
 354 0070 DB08     	 lsrs r3,r3,#3
 355 0072 7B62     	 str r3,[r7,#36]
 130:../Libraries/XMCLib/src/xmc_can.c **** 	temp_tbaud++;
 356              	 .loc 2 130 0
 357 0074 7B6A     	 ldr r3,[r7,#36]
 358 0076 0133     	 adds r3,r3,#1
 359 0078 7B62     	 str r3,[r7,#36]
 360 007a 05E0     	 b .L11
 361              	.L10:
 131:../Libraries/XMCLib/src/xmc_can.c ****   }
 132:../Libraries/XMCLib/src/xmc_can.c ****   else
 133:../Libraries/XMCLib/src/xmc_can.c ****   {
 134:../Libraries/XMCLib/src/xmc_can.c **** 	temp_tbaud = (uint32_t)(temp_tbaud / 10U);
 362              	 .loc 2 134 0
 363 007c 7B6A     	 ldr r3,[r7,#36]
 364 007e 504A     	 ldr r2,.L26
 365 0080 A2FB0323 	 umull r2,r3,r2,r3
 366 0084 DB08     	 lsrs r3,r3,#3
 367 0086 7B62     	 str r3,[r7,#36]
 368              	.L11:
 135:../Libraries/XMCLib/src/xmc_can.c ****   }
 136:../Libraries/XMCLib/src/xmc_can.c **** 
 137:../Libraries/XMCLib/src/xmc_can.c ****   if(temp_tbaud > 0U)
 369              	 .loc 2 137 0
 370 0088 7B6A     	 ldr r3,[r7,#36]
 371 008a 002B     	 cmp r3,#0
 372 008c 0AD0     	 beq .L12
 138:../Libraries/XMCLib/src/xmc_can.c ****   {
 139:../Libraries/XMCLib/src/xmc_can.c ****     temp_baudrate = (uint32_t) (f_quanta / (temp_tbaud * 10U));
 373              	 .loc 2 139 0
 374 008e 7A6A     	 ldr r2,[r7,#36]
 375 0090 1346     	 mov r3,r2
 376 0092 9B00     	 lsls r3,r3,#2
 377 0094 1344     	 add r3,r3,r2
 378 0096 5B00     	 lsls r3,r3,#1
 379 0098 1A46     	 mov r2,r3
 380 009a 3B69     	 ldr r3,[r7,#16]
 381 009c B3FBF2F3 	 udiv r3,r3,r2
 382 00a0 3B62     	 str r3,[r7,#32]
 383 00a2 07E0     	 b .L13
 384              	.L12:
 140:../Libraries/XMCLib/src/xmc_can.c ****   }
 141:../Libraries/XMCLib/src/xmc_can.c ****   else
 142:../Libraries/XMCLib/src/xmc_can.c ****   {
 143:../Libraries/XMCLib/src/xmc_can.c ****     temp_baudrate = f_quanta / 10U;
 385              	 .loc 2 143 0
 386 00a4 3B69     	 ldr r3,[r7,#16]
 387 00a6 464A     	 ldr r2,.L26
 388 00a8 A2FB0323 	 umull r2,r3,r2,r3
 389 00ac DB08     	 lsrs r3,r3,#3
 390 00ae 3B62     	 str r3,[r7,#32]
 144:../Libraries/XMCLib/src/xmc_can.c **** 	temp_tbaud = 1;
 391              	 .loc 2 144 0
 392 00b0 0123     	 movs r3,#1
 393 00b2 7B62     	 str r3,[r7,#36]
 394              	.L13:
 145:../Libraries/XMCLib/src/xmc_can.c ****   }
 146:../Libraries/XMCLib/src/xmc_can.c **** 
 147:../Libraries/XMCLib/src/xmc_can.c ****   if(temp_baudrate >= can_bit_time->baudrate)
 395              	 .loc 2 147 0
 396 00b4 3B68     	 ldr r3,[r7]
 397 00b6 5A68     	 ldr r2,[r3,#4]
 398 00b8 3B6A     	 ldr r3,[r7,#32]
 399 00ba 9A42     	 cmp r2,r3
 400 00bc 05D8     	 bhi .L14
 148:../Libraries/XMCLib/src/xmc_can.c ****   {
 149:../Libraries/XMCLib/src/xmc_can.c **** 	error = temp_baudrate - can_bit_time->baudrate;
 401              	 .loc 2 149 0
 402 00be 3B68     	 ldr r3,[r7]
 403 00c0 5B68     	 ldr r3,[r3,#4]
 404 00c2 3A6A     	 ldr r2,[r7,#32]
 405 00c4 D31A     	 subs r3,r2,r3
 406 00c6 FB61     	 str r3,[r7,#28]
 407 00c8 04E0     	 b .L15
 408              	.L14:
 150:../Libraries/XMCLib/src/xmc_can.c ****   }
 151:../Libraries/XMCLib/src/xmc_can.c ****   else
 152:../Libraries/XMCLib/src/xmc_can.c ****   {
 153:../Libraries/XMCLib/src/xmc_can.c **** 	error = can_bit_time->baudrate - temp_baudrate;
 409              	 .loc 2 153 0
 410 00ca 3B68     	 ldr r3,[r7]
 411 00cc 5A68     	 ldr r2,[r3,#4]
 412 00ce 3B6A     	 ldr r3,[r7,#32]
 413 00d0 D31A     	 subs r3,r2,r3
 414 00d2 FB61     	 str r3,[r7,#28]
 415              	.L15:
 154:../Libraries/XMCLib/src/xmc_can.c ****   }
 155:../Libraries/XMCLib/src/xmc_can.c **** 
 156:../Libraries/XMCLib/src/xmc_can.c ****   if ((temp_tbaud <= 20U) && (best_error > error))
 416              	 .loc 2 156 0
 417 00d4 7B6A     	 ldr r3,[r7,#36]
 418 00d6 142B     	 cmp r3,#20
 419 00d8 0ED8     	 bhi .L16
 420              	 .loc 2 156 0 is_stmt 0 discriminator 1
 421 00da BA6A     	 ldr r2,[r7,#40]
 422 00dc FB69     	 ldr r3,[r7,#28]
 423 00de 9A42     	 cmp r2,r3
 424 00e0 0AD9     	 bls .L16
 157:../Libraries/XMCLib/src/xmc_can.c ****   {
 158:../Libraries/XMCLib/src/xmc_can.c ****     best_brp = temp_brp;
 425              	 .loc 2 158 0 is_stmt 1
 426 00e2 FB6B     	 ldr r3,[r7,#60]
 427 00e4 7B63     	 str r3,[r7,#52]
 159:../Libraries/XMCLib/src/xmc_can.c ****     best_tbaud = temp_tbaud;
 428              	 .loc 2 159 0
 429 00e6 7B6A     	 ldr r3,[r7,#36]
 430 00e8 FB62     	 str r3,[r7,#44]
 160:../Libraries/XMCLib/src/xmc_can.c ****     best_error = (error);
 431              	 .loc 2 160 0
 432 00ea FB69     	 ldr r3,[r7,#28]
 433 00ec BB62     	 str r3,[r7,#40]
 161:../Libraries/XMCLib/src/xmc_can.c **** 
 162:../Libraries/XMCLib/src/xmc_can.c ****     if (error < 1000U)
 434              	 .loc 2 162 0
 435 00ee FB69     	 ldr r3,[r7,#28]
 436 00f0 B3F57A7F 	 cmp r3,#1000
 437 00f4 00D2     	 bcs .L16
 163:../Libraries/XMCLib/src/xmc_can.c ****     {
 164:../Libraries/XMCLib/src/xmc_can.c ****       break;
 438              	 .loc 2 164 0
 439 00f6 05E0     	 b .L17
 440              	.L16:
 441              	.LBE2:
 119:../Libraries/XMCLib/src/xmc_can.c ****   {
 442              	 .loc 2 119 0 discriminator 2
 443 00f8 FB6B     	 ldr r3,[r7,#60]
 444 00fa 0133     	 adds r3,r3,#1
 445 00fc FB63     	 str r3,[r7,#60]
 446              	.L9:
 119:../Libraries/XMCLib/src/xmc_can.c ****   {
 447              	 .loc 2 119 0 is_stmt 0 discriminator 1
 448 00fe FB6B     	 ldr r3,[r7,#60]
 449 0100 402B     	 cmp r3,#64
 450 0102 94D9     	 bls .L18
 451              	.L17:
 165:../Libraries/XMCLib/src/xmc_can.c ****     }
 166:../Libraries/XMCLib/src/xmc_can.c ****    }
 167:../Libraries/XMCLib/src/xmc_can.c ****   }
 168:../Libraries/XMCLib/src/xmc_can.c ****   /* search for best sample point */
 169:../Libraries/XMCLib/src/xmc_can.c ****   best_error = 10000U;
 452              	 .loc 2 169 0 is_stmt 1
 453 0104 42F21073 	 movw r3,#10000
 454 0108 BB62     	 str r3,[r7,#40]
 170:../Libraries/XMCLib/src/xmc_can.c **** 
 171:../Libraries/XMCLib/src/xmc_can.c ****   for (temp_tseg1 = 64U; temp_tseg1 >= 3U; temp_tseg1--)
 455              	 .loc 2 171 0
 456 010a 4023     	 movs r3,#64
 457 010c BB63     	 str r3,[r7,#56]
 458 010e 2EE0     	 b .L19
 459              	.L25:
 460              	.LBB3:
 172:../Libraries/XMCLib/src/xmc_can.c ****   {
 173:../Libraries/XMCLib/src/xmc_can.c ****     uint32_t tempSamplePoint = ((temp_tseg1 + 1U) * 10000U) / best_tbaud;
 461              	 .loc 2 173 0
 462 0110 BB6B     	 ldr r3,[r7,#56]
 463 0112 0133     	 adds r3,r3,#1
 464 0114 42F21072 	 movw r2,#10000
 465 0118 02FB03F2 	 mul r2,r2,r3
 466 011c FB6A     	 ldr r3,[r7,#44]
 467 011e B2FBF3F3 	 udiv r3,r2,r3
 468 0122 FB60     	 str r3,[r7,#12]
 174:../Libraries/XMCLib/src/xmc_can.c **** 	uint32_t error;
 175:../Libraries/XMCLib/src/xmc_can.c **** 	if (tempSamplePoint >= can_bit_time->sample_point)
 469              	 .loc 2 175 0
 470 0124 3B68     	 ldr r3,[r7]
 471 0126 1B89     	 ldrh r3,[r3,#8]
 472 0128 1A46     	 mov r2,r3
 473 012a FB68     	 ldr r3,[r7,#12]
 474 012c 9A42     	 cmp r2,r3
 475 012e 06D8     	 bhi .L20
 176:../Libraries/XMCLib/src/xmc_can.c **** 	{
 177:../Libraries/XMCLib/src/xmc_can.c ****       error = tempSamplePoint  - can_bit_time->sample_point;
 476              	 .loc 2 177 0
 477 0130 3B68     	 ldr r3,[r7]
 478 0132 1B89     	 ldrh r3,[r3,#8]
 479 0134 1A46     	 mov r2,r3
 480 0136 FB68     	 ldr r3,[r7,#12]
 481 0138 9B1A     	 subs r3,r3,r2
 482 013a BB61     	 str r3,[r7,#24]
 483 013c 05E0     	 b .L21
 484              	.L20:
 178:../Libraries/XMCLib/src/xmc_can.c **** 	}
 179:../Libraries/XMCLib/src/xmc_can.c **** 	else
 180:../Libraries/XMCLib/src/xmc_can.c **** 	{
 181:../Libraries/XMCLib/src/xmc_can.c **** 	  error = can_bit_time->sample_point  - tempSamplePoint;
 485              	 .loc 2 181 0
 486 013e 3B68     	 ldr r3,[r7]
 487 0140 1B89     	 ldrh r3,[r3,#8]
 488 0142 1A46     	 mov r2,r3
 489 0144 FB68     	 ldr r3,[r7,#12]
 490 0146 D31A     	 subs r3,r2,r3
 491 0148 BB61     	 str r3,[r7,#24]
 492              	.L21:
 182:../Libraries/XMCLib/src/xmc_can.c **** 	}
 183:../Libraries/XMCLib/src/xmc_can.c ****     if (best_error > error)
 493              	 .loc 2 183 0
 494 014a BA6A     	 ldr r2,[r7,#40]
 495 014c BB69     	 ldr r3,[r7,#24]
 496 014e 9A42     	 cmp r2,r3
 497 0150 03D9     	 bls .L22
 184:../Libraries/XMCLib/src/xmc_can.c ****     {
 185:../Libraries/XMCLib/src/xmc_can.c ****       best_tseg1 = temp_tseg1;
 498              	 .loc 2 185 0
 499 0152 BB6B     	 ldr r3,[r7,#56]
 500 0154 3B63     	 str r3,[r7,#48]
 186:../Libraries/XMCLib/src/xmc_can.c ****       best_error = error;
 501              	 .loc 2 186 0
 502 0156 BB69     	 ldr r3,[r7,#24]
 503 0158 BB62     	 str r3,[r7,#40]
 504              	.L22:
 187:../Libraries/XMCLib/src/xmc_can.c ****     }
 188:../Libraries/XMCLib/src/xmc_can.c ****     if (tempSamplePoint < (can_bit_time->sample_point))
 505              	 .loc 2 188 0
 506 015a 3B68     	 ldr r3,[r7]
 507 015c 1B89     	 ldrh r3,[r3,#8]
 508 015e 1A46     	 mov r2,r3
 509 0160 FB68     	 ldr r3,[r7,#12]
 510 0162 9A42     	 cmp r2,r3
 511 0164 00D9     	 bls .L23
 189:../Libraries/XMCLib/src/xmc_can.c ****     {
 190:../Libraries/XMCLib/src/xmc_can.c ****       break;
 512              	 .loc 2 190 0
 513 0166 05E0     	 b .L24
 514              	.L23:
 515              	.LBE3:
 171:../Libraries/XMCLib/src/xmc_can.c ****   {
 516              	 .loc 2 171 0 discriminator 2
 517 0168 BB6B     	 ldr r3,[r7,#56]
 518 016a 013B     	 subs r3,r3,#1
 519 016c BB63     	 str r3,[r7,#56]
 520              	.L19:
 171:../Libraries/XMCLib/src/xmc_can.c ****   {
 521              	 .loc 2 171 0 is_stmt 0 discriminator 1
 522 016e BB6B     	 ldr r3,[r7,#56]
 523 0170 022B     	 cmp r3,#2
 524 0172 CDD8     	 bhi .L25
 525              	.L24:
 191:../Libraries/XMCLib/src/xmc_can.c ****     }
 192:../Libraries/XMCLib/src/xmc_can.c ****   }
 193:../Libraries/XMCLib/src/xmc_can.c **** 
 194:../Libraries/XMCLib/src/xmc_can.c ****   best_tseg2 = best_tbaud - best_tseg1 - 1U;
 526              	 .loc 2 194 0 is_stmt 1
 527 0174 FA6A     	 ldr r2,[r7,#44]
 528 0176 3B6B     	 ldr r3,[r7,#48]
 529 0178 D31A     	 subs r3,r2,r3
 530 017a 013B     	 subs r3,r3,#1
 531 017c 7B61     	 str r3,[r7,#20]
 195:../Libraries/XMCLib/src/xmc_can.c **** 
 196:../Libraries/XMCLib/src/xmc_can.c ****   XMC_CAN_NODE_EnableConfigurationChange(can_node);
 532              	 .loc 2 196 0
 533 017e 7868     	 ldr r0,[r7,#4]
 534 0180 FFF7FEFF 	 bl XMC_CAN_NODE_EnableConfigurationChange
 197:../Libraries/XMCLib/src/xmc_can.c ****   /* Configure bit timing register */
 198:../Libraries/XMCLib/src/xmc_can.c ****   can_node->NBTR = (((uint32_t)(best_tseg2 - 1u) << CAN_NODE_NBTR_TSEG2_Pos) & (uint32_t)CAN_NODE_N
 535              	 .loc 2 198 0
 536 0184 7B69     	 ldr r3,[r7,#20]
 537 0186 013B     	 subs r3,r3,#1
 538 0188 1B03     	 lsls r3,r3,#12
 539 018a 03F4E042 	 and r2,r3,#28672
 199:../Libraries/XMCLib/src/xmc_can.c ****                    ((((uint32_t)((uint32_t)(can_bit_time->sjw)-1U) << CAN_NODE_NBTR_SJW_Pos)) & (ui
 540              	 .loc 2 199 0
 541 018e 3B68     	 ldr r3,[r7]
 542 0190 5B89     	 ldrh r3,[r3,#10]
 543 0192 013B     	 subs r3,r3,#1
 544 0194 9B01     	 lsls r3,r3,#6
 545 0196 DBB2     	 uxtb r3,r3
 198:../Libraries/XMCLib/src/xmc_can.c ****                    ((((uint32_t)((uint32_t)(can_bit_time->sjw)-1U) << CAN_NODE_NBTR_SJW_Pos)) & (ui
 546              	 .loc 2 198 0
 547 0198 1A43     	 orrs r2,r2,r3
 200:../Libraries/XMCLib/src/xmc_can.c ****                    (((uint32_t)(best_tseg1-1U) << CAN_NODE_NBTR_TSEG1_Pos) & (uint32_t)CAN_NODE_NBT
 548              	 .loc 2 200 0
 549 019a 3B6B     	 ldr r3,[r7,#48]
 550 019c 013B     	 subs r3,r3,#1
 551 019e 1B02     	 lsls r3,r3,#8
 552 01a0 03F47063 	 and r3,r3,#3840
 199:../Libraries/XMCLib/src/xmc_can.c ****                    ((((uint32_t)((uint32_t)(can_bit_time->sjw)-1U) << CAN_NODE_NBTR_SJW_Pos)) & (ui
 553              	 .loc 2 199 0
 554 01a4 1A43     	 orrs r2,r2,r3
 201:../Libraries/XMCLib/src/xmc_can.c ****                    (((uint32_t)(best_brp - 1U) << CAN_NODE_NBTR_BRP_Pos) & (uint32_t)CAN_NODE_NBTR_
 555              	 .loc 2 201 0
 556 01a6 7B6B     	 ldr r3,[r7,#52]
 557 01a8 013B     	 subs r3,r3,#1
 558 01aa 03F03F03 	 and r3,r3,#63
 559 01ae 1A43     	 orrs r2,r2,r3
 198:../Libraries/XMCLib/src/xmc_can.c ****                    ((((uint32_t)((uint32_t)(can_bit_time->sjw)-1U) << CAN_NODE_NBTR_SJW_Pos)) & (ui
 560              	 .loc 2 198 0
 561 01b0 7B68     	 ldr r3,[r7,#4]
 562 01b2 1A61     	 str r2,[r3,#16]
 202:../Libraries/XMCLib/src/xmc_can.c ****                    (((uint32_t)0U << CAN_NODE_NBTR_DIV8_Pos) & (uint32_t)CAN_NODE_NBTR_DIV8_Msk);
 203:../Libraries/XMCLib/src/xmc_can.c ****   XMC_CAN_NODE_DisableConfigurationChange(can_node);
 563              	 .loc 2 203 0
 564 01b4 7868     	 ldr r0,[r7,#4]
 565 01b6 FFF7FEFF 	 bl XMC_CAN_NODE_DisableConfigurationChange
 204:../Libraries/XMCLib/src/xmc_can.c **** }
 566              	 .loc 2 204 0
 567 01ba 4037     	 adds r7,r7,#64
 568              	.LCFI33:
 569              	 .cfi_def_cfa_offset 8
 570 01bc BD46     	 mov sp,r7
 571              	.LCFI34:
 572              	 .cfi_def_cfa_register 13
 573              	 
 574 01be 80BD     	 pop {r7,pc}
 575              	.L27:
 576              	 .align 2
 577              	.L26:
 578 01c0 CDCCCCCC 	 .word -858993459
 579              	 .cfi_endproc
 580              	.LFE207:
 582              	 .section .text.XMC_CAN_AllocateMOtoNodeList,"ax",%progbits
 583              	 .align 2
 584              	 .global XMC_CAN_AllocateMOtoNodeList
 585              	 .thumb
 586              	 .thumb_func
 588              	XMC_CAN_AllocateMOtoNodeList:
 589              	.LFB208:
 205:../Libraries/XMCLib/src/xmc_can.c **** /* Function to allocate message object from free list to node list */
 206:../Libraries/XMCLib/src/xmc_can.c **** void XMC_CAN_AllocateMOtoNodeList(XMC_CAN_t *const obj, const uint8_t node_num, const uint8_t mo_nu
 207:../Libraries/XMCLib/src/xmc_can.c **** {
 590              	 .loc 2 207 0
 591              	 .cfi_startproc
 592              	 
 593              	 
 594 0000 80B5     	 push {r7,lr}
 595              	.LCFI35:
 596              	 .cfi_def_cfa_offset 8
 597              	 .cfi_offset 7,-8
 598              	 .cfi_offset 14,-4
 599 0002 82B0     	 sub sp,sp,#8
 600              	.LCFI36:
 601              	 .cfi_def_cfa_offset 16
 602 0004 00AF     	 add r7,sp,#0
 603              	.LCFI37:
 604              	 .cfi_def_cfa_register 7
 605 0006 7860     	 str r0,[r7,#4]
 606 0008 0B46     	 mov r3,r1
 607 000a FB70     	 strb r3,[r7,#3]
 608 000c 1346     	 mov r3,r2
 609 000e BB70     	 strb r3,[r7,#2]
 208:../Libraries/XMCLib/src/xmc_can.c ****   /* Panel Command for  allocation of MO to node list */
 209:../Libraries/XMCLib/src/xmc_can.c ****   XMC_CAN_PanelControl(obj, XMC_CAN_PANCMD_STATIC_ALLOCATE,mo_num,(node_num + 1U));
 610              	 .loc 2 209 0
 611 0010 FB78     	 ldrb r3,[r7,#3]
 612 0012 0133     	 adds r3,r3,#1
 613 0014 DBB2     	 uxtb r3,r3
 614 0016 BA78     	 ldrb r2,[r7,#2]
 615 0018 7868     	 ldr r0,[r7,#4]
 616 001a 0221     	 movs r1,#2
 617 001c FFF7FEFF 	 bl XMC_CAN_PanelControl
 210:../Libraries/XMCLib/src/xmc_can.c ****   /* wait until panel as done the command */
 211:../Libraries/XMCLib/src/xmc_can.c ****   while (obj->PANCTR & CAN_PANCTR_BUSY_Msk)
 618              	 .loc 2 211 0
 619 0020 00BF     	 nop
 620              	.L29:
 621              	 .loc 2 211 0 is_stmt 0 discriminator 1
 622 0022 7B68     	 ldr r3,[r7,#4]
 623 0024 D3F8C431 	 ldr r3,[r3,#452]
 624 0028 03F48073 	 and r3,r3,#256
 625 002c 002B     	 cmp r3,#0
 626 002e F8D1     	 bne .L29
 212:../Libraries/XMCLib/src/xmc_can.c ****   {
 213:../Libraries/XMCLib/src/xmc_can.c ****     /*Do nothing*/
 214:../Libraries/XMCLib/src/xmc_can.c ****   };
 215:../Libraries/XMCLib/src/xmc_can.c **** }
 627              	 .loc 2 215 0 is_stmt 1
 628 0030 0837     	 adds r7,r7,#8
 629              	.LCFI38:
 630              	 .cfi_def_cfa_offset 8
 631 0032 BD46     	 mov sp,r7
 632              	.LCFI39:
 633              	 .cfi_def_cfa_register 13
 634              	 
 635 0034 80BD     	 pop {r7,pc}
 636              	 .cfi_endproc
 637              	.LFE208:
 639 0036 00BF     	 .section .text.XMC_CAN_Disable,"ax",%progbits
 640              	 .align 2
 641              	 .global XMC_CAN_Disable
 642              	 .thumb
 643              	 .thumb_func
 645              	XMC_CAN_Disable:
 646              	.LFB209:
 216:../Libraries/XMCLib/src/xmc_can.c **** 
 217:../Libraries/XMCLib/src/xmc_can.c **** /* Disable XMC_CAN Peripheral */
 218:../Libraries/XMCLib/src/xmc_can.c **** void XMC_CAN_Disable(XMC_CAN_t *const obj)
 219:../Libraries/XMCLib/src/xmc_can.c **** {
 647              	 .loc 2 219 0
 648              	 .cfi_startproc
 649              	 
 650              	 
 651 0000 80B5     	 push {r7,lr}
 652              	.LCFI40:
 653              	 .cfi_def_cfa_offset 8
 654              	 .cfi_offset 7,-8
 655              	 .cfi_offset 14,-4
 656 0002 82B0     	 sub sp,sp,#8
 657              	.LCFI41:
 658              	 .cfi_def_cfa_offset 16
 659 0004 00AF     	 add r7,sp,#0
 660              	.LCFI42:
 661              	 .cfi_def_cfa_register 7
 662 0006 7860     	 str r0,[r7,#4]
 220:../Libraries/XMCLib/src/xmc_can.c ****   /* Disable CAN Module */
 221:../Libraries/XMCLib/src/xmc_can.c ****   obj->CLC = CAN_CLC_DISR_Msk;
 663              	 .loc 2 221 0
 664 0008 7B68     	 ldr r3,[r7,#4]
 665 000a 0122     	 movs r2,#1
 666 000c 1A60     	 str r2,[r3]
 222:../Libraries/XMCLib/src/xmc_can.c **** #if defined(PERIPHERAL_RESET_SUPPORTED)
 223:../Libraries/XMCLib/src/xmc_can.c ****   XMC_SCU_RESET_AssertPeripheralReset(XMC_SCU_PERIPHERAL_RESET_MCAN);
 667              	 .loc 2 223 0
 668 000e 0448     	 ldr r0,.L31
 669 0010 FFF7FEFF 	 bl XMC_SCU_RESET_AssertPeripheralReset
 224:../Libraries/XMCLib/src/xmc_can.c **** #endif
 225:../Libraries/XMCLib/src/xmc_can.c **** #if defined(CLOCK_GATING_SUPPORTED)
 226:../Libraries/XMCLib/src/xmc_can.c ****   XMC_SCU_CLOCK_GatePeripheralClock(XMC_SCU_PERIPHERAL_CLOCK_MCAN);
 670              	 .loc 2 226 0
 671 0014 0248     	 ldr r0,.L31
 672 0016 FFF7FEFF 	 bl XMC_SCU_CLOCK_GatePeripheralClock
 227:../Libraries/XMCLib/src/xmc_can.c **** #endif
 228:../Libraries/XMCLib/src/xmc_can.c **** }
 673              	 .loc 2 228 0
 674 001a 0837     	 adds r7,r7,#8
 675              	.LCFI43:
 676              	 .cfi_def_cfa_offset 8
 677 001c BD46     	 mov sp,r7
 678              	.LCFI44:
 679              	 .cfi_def_cfa_register 13
 680              	 
 681 001e 80BD     	 pop {r7,pc}
 682              	.L32:
 683              	 .align 2
 684              	.L31:
 685 0020 10000010 	 .word 268435472
 686              	 .cfi_endproc
 687              	.LFE209:
 689              	 .section .text.XMC_CAN_Enable,"ax",%progbits
 690              	 .align 2
 691              	 .global XMC_CAN_Enable
 692              	 .thumb
 693              	 .thumb_func
 695              	XMC_CAN_Enable:
 696              	.LFB210:
 229:../Libraries/XMCLib/src/xmc_can.c **** 
 230:../Libraries/XMCLib/src/xmc_can.c **** /* Enable XMC_CAN Peripheral */
 231:../Libraries/XMCLib/src/xmc_can.c **** void XMC_CAN_Enable(XMC_CAN_t *const obj)
 232:../Libraries/XMCLib/src/xmc_can.c **** {
 697              	 .loc 2 232 0
 698              	 .cfi_startproc
 699              	 
 700              	 
 701 0000 80B5     	 push {r7,lr}
 702              	.LCFI45:
 703              	 .cfi_def_cfa_offset 8
 704              	 .cfi_offset 7,-8
 705              	 .cfi_offset 14,-4
 706 0002 82B0     	 sub sp,sp,#8
 707              	.LCFI46:
 708              	 .cfi_def_cfa_offset 16
 709 0004 00AF     	 add r7,sp,#0
 710              	.LCFI47:
 711              	 .cfi_def_cfa_register 7
 712 0006 7860     	 str r0,[r7,#4]
 233:../Libraries/XMCLib/src/xmc_can.c **** #if defined(CLOCK_GATING_SUPPORTED)
 234:../Libraries/XMCLib/src/xmc_can.c ****   XMC_SCU_CLOCK_UngatePeripheralClock(XMC_SCU_PERIPHERAL_CLOCK_MCAN);
 713              	 .loc 2 234 0
 714 0008 0A48     	 ldr r0,.L35
 715 000a FFF7FEFF 	 bl XMC_SCU_CLOCK_UngatePeripheralClock
 235:../Libraries/XMCLib/src/xmc_can.c **** #endif
 236:../Libraries/XMCLib/src/xmc_can.c **** #if defined(PERIPHERAL_RESET_SUPPORTED)
 237:../Libraries/XMCLib/src/xmc_can.c ****   XMC_SCU_RESET_DeassertPeripheralReset(XMC_SCU_PERIPHERAL_RESET_MCAN);
 716              	 .loc 2 237 0
 717 000e 0948     	 ldr r0,.L35
 718 0010 FFF7FEFF 	 bl XMC_SCU_RESET_DeassertPeripheralReset
 238:../Libraries/XMCLib/src/xmc_can.c **** #endif
 239:../Libraries/XMCLib/src/xmc_can.c ****   /* Enable CAN Module */
 240:../Libraries/XMCLib/src/xmc_can.c ****   obj->CLC &= ~(uint32_t)CAN_CLC_DISR_Msk;
 719              	 .loc 2 240 0
 720 0014 7B68     	 ldr r3,[r7,#4]
 721 0016 1B68     	 ldr r3,[r3]
 722 0018 23F00102 	 bic r2,r3,#1
 723 001c 7B68     	 ldr r3,[r7,#4]
 724 001e 1A60     	 str r2,[r3]
 241:../Libraries/XMCLib/src/xmc_can.c ****   while (obj->CLC & CAN_CLC_DISS_Msk)
 725              	 .loc 2 241 0
 726 0020 00BF     	 nop
 727              	.L34:
 728              	 .loc 2 241 0 is_stmt 0 discriminator 1
 729 0022 7B68     	 ldr r3,[r7,#4]
 730 0024 1B68     	 ldr r3,[r3]
 731 0026 03F00203 	 and r3,r3,#2
 732 002a 002B     	 cmp r3,#0
 733 002c F9D1     	 bne .L34
 242:../Libraries/XMCLib/src/xmc_can.c ****   {
 243:../Libraries/XMCLib/src/xmc_can.c ****     /*Do nothing*/
 244:../Libraries/XMCLib/src/xmc_can.c ****   };
 245:../Libraries/XMCLib/src/xmc_can.c **** }
 734              	 .loc 2 245 0 is_stmt 1
 735 002e 0837     	 adds r7,r7,#8
 736              	.LCFI48:
 737              	 .cfi_def_cfa_offset 8
 738 0030 BD46     	 mov sp,r7
 739              	.LCFI49:
 740              	 .cfi_def_cfa_register 13
 741              	 
 742 0032 80BD     	 pop {r7,pc}
 743              	.L36:
 744              	 .align 2
 745              	.L35:
 746 0034 10000010 	 .word 268435472
 747              	 .cfi_endproc
 748              	.LFE210:
 750              	 .section .text.XMC_CAN_GetBaudrateClockFrequency,"ax",%progbits
 751              	 .align 2
 752              	 .global XMC_CAN_GetBaudrateClockFrequency
 753              	 .thumb
 754              	 .thumb_func
 756              	XMC_CAN_GetBaudrateClockFrequency:
 757              	.LFB211:
 246:../Libraries/XMCLib/src/xmc_can.c **** #if defined(MULTICAN_PLUS)
 247:../Libraries/XMCLib/src/xmc_can.c **** uint32_t XMC_CAN_GetBaudrateClockFrequency(XMC_CAN_t *const obj)
 248:../Libraries/XMCLib/src/xmc_can.c **** {
 758              	 .loc 2 248 0
 759              	 .cfi_startproc
 760              	 
 761              	 
 762 0000 80B5     	 push {r7,lr}
 763              	.LCFI50:
 764              	 .cfi_def_cfa_offset 8
 765              	 .cfi_offset 7,-8
 766              	 .cfi_offset 14,-4
 767 0002 84B0     	 sub sp,sp,#16
 768              	.LCFI51:
 769              	 .cfi_def_cfa_offset 24
 770 0004 00AF     	 add r7,sp,#0
 771              	.LCFI52:
 772              	 .cfi_def_cfa_register 7
 773 0006 7860     	 str r0,[r7,#4]
 249:../Libraries/XMCLib/src/xmc_can.c ****   uint32_t frequency;
 250:../Libraries/XMCLib/src/xmc_can.c **** 
 251:../Libraries/XMCLib/src/xmc_can.c ****   switch(XMC_CAN_GetBaudrateClockSource(obj))
 774              	 .loc 2 251 0
 775 0008 7868     	 ldr r0,[r7,#4]
 776 000a FFF7FEFF 	 bl XMC_CAN_GetBaudrateClockSource
 777 000e 0346     	 mov r3,r0
 778 0010 012B     	 cmp r3,#1
 779 0012 02D0     	 beq .L39
 780 0014 022B     	 cmp r3,#2
 781 0016 04D0     	 beq .L40
 782 0018 07E0     	 b .L43
 783              	.L39:
 252:../Libraries/XMCLib/src/xmc_can.c ****   {
 253:../Libraries/XMCLib/src/xmc_can.c **** #if UC_FAMILY == XMC4
 254:../Libraries/XMCLib/src/xmc_can.c ****     case XMC_CAN_CANCLKSRC_FPERI:
 255:../Libraries/XMCLib/src/xmc_can.c ****          frequency = XMC_SCU_CLOCK_GetPeripheralClockFrequency();
 784              	 .loc 2 255 0
 785 001a FFF7FEFF 	 bl XMC_SCU_CLOCK_GetPeripheralClockFrequency
 786 001e F860     	 str r0,[r7,#12]
 256:../Libraries/XMCLib/src/xmc_can.c ****          break;
 787              	 .loc 2 256 0
 788 0020 06E0     	 b .L41
 789              	.L40:
 257:../Libraries/XMCLib/src/xmc_can.c **** #else
 258:../Libraries/XMCLib/src/xmc_can.c ****     case XMC_CAN_CANCLKSRC_MCLK:
 259:../Libraries/XMCLib/src/xmc_can.c ****            frequency = XMC_SCU_CLOCK_GetPeripheralClockFrequency();
 260:../Libraries/XMCLib/src/xmc_can.c ****            break;
 261:../Libraries/XMCLib/src/xmc_can.c **** #endif
 262:../Libraries/XMCLib/src/xmc_can.c ****     case XMC_CAN_CANCLKSRC_FOHP:
 263:../Libraries/XMCLib/src/xmc_can.c ****          frequency = OSCHP_GetFrequency();
 790              	 .loc 2 263 0
 791 0022 FFF7FEFF 	 bl OSCHP_GetFrequency
 792 0026 F860     	 str r0,[r7,#12]
 264:../Libraries/XMCLib/src/xmc_can.c ****          break;
 793              	 .loc 2 264 0
 794 0028 02E0     	 b .L41
 795              	.L43:
 265:../Libraries/XMCLib/src/xmc_can.c **** 
 266:../Libraries/XMCLib/src/xmc_can.c ****     default:
 267:../Libraries/XMCLib/src/xmc_can.c ****          frequency = 0;
 796              	 .loc 2 267 0
 797 002a 0023     	 movs r3,#0
 798 002c FB60     	 str r3,[r7,#12]
 268:../Libraries/XMCLib/src/xmc_can.c ****          break;
 799              	 .loc 2 268 0
 800 002e 00BF     	 nop
 801              	.L41:
 269:../Libraries/XMCLib/src/xmc_can.c ****   }
 270:../Libraries/XMCLib/src/xmc_can.c **** 
 271:../Libraries/XMCLib/src/xmc_can.c ****   return frequency;
 802              	 .loc 2 271 0
 803 0030 FB68     	 ldr r3,[r7,#12]
 272:../Libraries/XMCLib/src/xmc_can.c **** }
 804              	 .loc 2 272 0
 805 0032 1846     	 mov r0,r3
 806 0034 1037     	 adds r7,r7,#16
 807              	.LCFI53:
 808              	 .cfi_def_cfa_offset 8
 809 0036 BD46     	 mov sp,r7
 810              	.LCFI54:
 811              	 .cfi_def_cfa_register 13
 812              	 
 813 0038 80BD     	 pop {r7,pc}
 814              	 .cfi_endproc
 815              	.LFE211:
 817 003a 00BF     	 .section .text.XMC_CAN_Init,"ax",%progbits
 818              	 .align 2
 819              	 .global XMC_CAN_Init
 820              	 .thumb
 821              	 .thumb_func
 823              	XMC_CAN_Init:
 824              	.LFB212:
 273:../Libraries/XMCLib/src/xmc_can.c **** 
 274:../Libraries/XMCLib/src/xmc_can.c **** void XMC_CAN_Init(XMC_CAN_t *const obj, XMC_CAN_CANCLKSRC_t clksrc, uint32_t can_frequency)
 275:../Libraries/XMCLib/src/xmc_can.c **** {
 825              	 .loc 2 275 0
 826              	 .cfi_startproc
 827              	 
 828              	 
 829 0000 80B5     	 push {r7,lr}
 830              	.LCFI55:
 831              	 .cfi_def_cfa_offset 8
 832              	 .cfi_offset 7,-8
 833              	 .cfi_offset 14,-4
 834 0002 8EB0     	 sub sp,sp,#56
 835              	.LCFI56:
 836              	 .cfi_def_cfa_offset 64
 837 0004 00AF     	 add r7,sp,#0
 838              	.LCFI57:
 839              	 .cfi_def_cfa_register 7
 840 0006 F860     	 str r0,[r7,#12]
 841 0008 0B46     	 mov r3,r1
 842 000a 7A60     	 str r2,[r7,#4]
 843 000c FB72     	 strb r3,[r7,#11]
 276:../Libraries/XMCLib/src/xmc_can.c ****   uint32_t  step_n, step_f;
 277:../Libraries/XMCLib/src/xmc_can.c ****   bool normal_divider;
 278:../Libraries/XMCLib/src/xmc_can.c ****   uint32_t freq_n, freq_f;
 279:../Libraries/XMCLib/src/xmc_can.c ****   uint32_t step;
 280:../Libraries/XMCLib/src/xmc_can.c ****   uint32_t can_frequency_khz;
 281:../Libraries/XMCLib/src/xmc_can.c ****   uint32_t peripheral_frequency_khz;
 282:../Libraries/XMCLib/src/xmc_can.c ****   XMC_CAN_DM_t can_divider_mode;
 283:../Libraries/XMCLib/src/xmc_can.c **** 
 284:../Libraries/XMCLib/src/xmc_can.c ****   uint32_t peripheral_frequency;
 285:../Libraries/XMCLib/src/xmc_can.c ****   /*Enabling the module*/
 286:../Libraries/XMCLib/src/xmc_can.c ****   XMC_CAN_Enable(obj);
 844              	 .loc 2 286 0
 845 000e F868     	 ldr r0,[r7,#12]
 846 0010 FFF7FEFF 	 bl XMC_CAN_Enable
 287:../Libraries/XMCLib/src/xmc_can.c **** 
 288:../Libraries/XMCLib/src/xmc_can.c ****   XMC_CAN_SetBaudrateClockSource(obj, clksrc);
 847              	 .loc 2 288 0
 848 0014 FB7A     	 ldrb r3,[r7,#11]
 849 0016 F868     	 ldr r0,[r7,#12]
 850 0018 1946     	 mov r1,r3
 851 001a FFF7FEFF 	 bl XMC_CAN_SetBaudrateClockSource
 289:../Libraries/XMCLib/src/xmc_can.c **** 
 290:../Libraries/XMCLib/src/xmc_can.c ****   peripheral_frequency = XMC_CAN_GetBaudrateClockFrequency(obj);
 852              	 .loc 2 290 0
 853 001e F868     	 ldr r0,[r7,#12]
 854 0020 FFF7FEFF 	 bl XMC_CAN_GetBaudrateClockFrequency
 855 0024 7863     	 str r0,[r7,#52]
 291:../Libraries/XMCLib/src/xmc_can.c **** 
 292:../Libraries/XMCLib/src/xmc_can.c ****   XMC_ASSERT("XMC_CAN_Init: frequency not supported", can_frequency <= peripheral_frequency);
 293:../Libraries/XMCLib/src/xmc_can.c **** 
 294:../Libraries/XMCLib/src/xmc_can.c ****   /* Normal divider mode */
 295:../Libraries/XMCLib/src/xmc_can.c ****   step_n = (uint32_t)min(max(0U, (1024U - (peripheral_frequency / can_frequency))), 1023U);
 856              	 .loc 2 295 0
 857 0026 7A6B     	 ldr r2,[r7,#52]
 858 0028 7B68     	 ldr r3,[r7,#4]
 859 002a B2FBF3F3 	 udiv r3,r2,r3
 860 002e C3F58063 	 rsb r3,r3,#1024
 861 0032 0020     	 movs r0,#0
 862 0034 1946     	 mov r1,r3
 863 0036 FFF7FEFF 	 bl max
 864 003a 0346     	 mov r3,r0
 865 003c 1846     	 mov r0,r3
 866 003e 40F2FF31 	 movw r1,#1023
 867 0042 FFF7FEFF 	 bl min
 868 0046 3863     	 str r0,[r7,#48]
 296:../Libraries/XMCLib/src/xmc_can.c ****   freq_n = (uint32_t) (peripheral_frequency / (1024U - step_n));
 869              	 .loc 2 296 0
 870 0048 3B6B     	 ldr r3,[r7,#48]
 871 004a C3F58063 	 rsb r3,r3,#1024
 872 004e 7A6B     	 ldr r2,[r7,#52]
 873 0050 B2FBF3F3 	 udiv r3,r2,r3
 874 0054 FB62     	 str r3,[r7,#44]
 297:../Libraries/XMCLib/src/xmc_can.c **** 
 298:../Libraries/XMCLib/src/xmc_can.c ****   /* Fractional divider mode */
 299:../Libraries/XMCLib/src/xmc_can.c ****   can_frequency_khz = (uint32_t) (can_frequency >> 6);
 875              	 .loc 2 299 0
 876 0056 7B68     	 ldr r3,[r7,#4]
 877 0058 9B09     	 lsrs r3,r3,#6
 878 005a BB62     	 str r3,[r7,#40]
 300:../Libraries/XMCLib/src/xmc_can.c ****   peripheral_frequency_khz = (uint32_t)(peripheral_frequency >> 6);
 879              	 .loc 2 300 0
 880 005c 7B6B     	 ldr r3,[r7,#52]
 881 005e 9B09     	 lsrs r3,r3,#6
 882 0060 7B62     	 str r3,[r7,#36]
 301:../Libraries/XMCLib/src/xmc_can.c **** 
 302:../Libraries/XMCLib/src/xmc_can.c ****   step_f = (uint32_t)(min( (((1024U * can_frequency_khz) / peripheral_frequency_khz) ), 1023U ));
 883              	 .loc 2 302 0
 884 0062 BB6A     	 ldr r3,[r7,#40]
 885 0064 9A02     	 lsls r2,r3,#10
 886 0066 7B6A     	 ldr r3,[r7,#36]
 887 0068 B2FBF3F3 	 udiv r3,r2,r3
 888 006c 1846     	 mov r0,r3
 889 006e 40F2FF31 	 movw r1,#1023
 890 0072 FFF7FEFF 	 bl min
 891 0076 3862     	 str r0,[r7,#32]
 303:../Libraries/XMCLib/src/xmc_can.c ****   freq_f = (uint32_t)((peripheral_frequency_khz * step_f) / 1024U);
 892              	 .loc 2 303 0
 893 0078 7B6A     	 ldr r3,[r7,#36]
 894 007a 3A6A     	 ldr r2,[r7,#32]
 895 007c 02FB03F3 	 mul r3,r2,r3
 896 0080 9B0A     	 lsrs r3,r3,#10
 897 0082 FB61     	 str r3,[r7,#28]
 304:../Libraries/XMCLib/src/xmc_can.c ****   freq_f = freq_f << 6;
 898              	 .loc 2 304 0
 899 0084 FB69     	 ldr r3,[r7,#28]
 900 0086 9B01     	 lsls r3,r3,#6
 901 0088 FB61     	 str r3,[r7,#28]
 305:../Libraries/XMCLib/src/xmc_can.c **** 
 306:../Libraries/XMCLib/src/xmc_can.c ****   normal_divider  = (uint32_t)(can_frequency - freq_n) <= (can_frequency - freq_f);
 902              	 .loc 2 306 0
 903 008a 7A68     	 ldr r2,[r7,#4]
 904 008c FB6A     	 ldr r3,[r7,#44]
 905 008e D21A     	 subs r2,r2,r3
 906 0090 7968     	 ldr r1,[r7,#4]
 907 0092 FB69     	 ldr r3,[r7,#28]
 908 0094 CB1A     	 subs r3,r1,r3
 909 0096 9A42     	 cmp r2,r3
 910 0098 94BF     	 ite ls
 911 009a 0123     	 movls r3,#1
 912 009c 0023     	 movhi r3,#0
 913 009e FB76     	 strb r3,[r7,#27]
 307:../Libraries/XMCLib/src/xmc_can.c **** 
 308:../Libraries/XMCLib/src/xmc_can.c ****   step   = (normal_divider != 0U) ? step_n : step_f;
 914              	 .loc 2 308 0
 915 00a0 FB7E     	 ldrb r3,[r7,#27]
 916 00a2 002B     	 cmp r3,#0
 917 00a4 01D0     	 beq .L45
 918              	 .loc 2 308 0 is_stmt 0 discriminator 1
 919 00a6 3B6B     	 ldr r3,[r7,#48]
 920 00a8 00E0     	 b .L46
 921              	.L45:
 922              	 .loc 2 308 0 discriminator 2
 923 00aa 3B6A     	 ldr r3,[r7,#32]
 924              	.L46:
 925              	 .loc 2 308 0 discriminator 4
 926 00ac 7B61     	 str r3,[r7,#20]
 309:../Libraries/XMCLib/src/xmc_can.c ****   can_divider_mode = (normal_divider != 0U) ? XMC_CAN_DM_NORMAL : XMC_CAN_DM_FRACTIONAL;
 927              	 .loc 2 309 0 is_stmt 1 discriminator 4
 928 00ae FB7E     	 ldrb r3,[r7,#27]
 929 00b0 002B     	 cmp r3,#0
 930 00b2 01D0     	 beq .L47
 931              	 .loc 2 309 0 is_stmt 0 discriminator 1
 932 00b4 0123     	 movs r3,#1
 933 00b6 00E0     	 b .L48
 934              	.L47:
 935              	 .loc 2 309 0 discriminator 2
 936 00b8 0223     	 movs r3,#2
 937              	.L48:
 938              	 .loc 2 309 0 discriminator 4
 939 00ba FB74     	 strb r3,[r7,#19]
 310:../Libraries/XMCLib/src/xmc_can.c **** 
 311:../Libraries/XMCLib/src/xmc_can.c ****   obj->FDR &= (uint32_t) ~(CAN_FDR_DM_Msk | CAN_FDR_STEP_Msk);
 940              	 .loc 2 311 0 is_stmt 1 discriminator 4
 941 00bc FB68     	 ldr r3,[r7,#12]
 942 00be DB68     	 ldr r3,[r3,#12]
 943 00c0 23F44343 	 bic r3,r3,#49920
 944 00c4 23F0FF03 	 bic r3,r3,#255
 945 00c8 FA68     	 ldr r2,[r7,#12]
 946 00ca D360     	 str r3,[r2,#12]
 312:../Libraries/XMCLib/src/xmc_can.c ****   obj->FDR |= ((uint32_t)can_divider_mode << CAN_FDR_DM_Pos) | ((uint32_t)step << CAN_FDR_STEP_Pos)
 947              	 .loc 2 312 0 discriminator 4
 948 00cc FB68     	 ldr r3,[r7,#12]
 949 00ce DA68     	 ldr r2,[r3,#12]
 950 00d0 FB7C     	 ldrb r3,[r7,#19]
 951 00d2 9903     	 lsls r1,r3,#14
 952 00d4 7B69     	 ldr r3,[r7,#20]
 953 00d6 0B43     	 orrs r3,r3,r1
 954 00d8 1A43     	 orrs r2,r2,r3
 955 00da FB68     	 ldr r3,[r7,#12]
 956 00dc DA60     	 str r2,[r3,#12]
 313:../Libraries/XMCLib/src/xmc_can.c **** 
 314:../Libraries/XMCLib/src/xmc_can.c **** }
 957              	 .loc 2 314 0 discriminator 4
 958 00de 3837     	 adds r7,r7,#56
 959              	.LCFI58:
 960              	 .cfi_def_cfa_offset 8
 961 00e0 BD46     	 mov sp,r7
 962              	.LCFI59:
 963              	 .cfi_def_cfa_register 13
 964              	 
 965 00e2 80BD     	 pop {r7,pc}
 966              	 .cfi_endproc
 967              	.LFE212:
 969              	 .section .text.XMC_CAN_SetBaudrateClockSource,"ax",%progbits
 970              	 .align 2
 971              	 .global XMC_CAN_SetBaudrateClockSource
 972              	 .thumb
 973              	 .thumb_func
 975              	XMC_CAN_SetBaudrateClockSource:
 976              	.LFB213:
 315:../Libraries/XMCLib/src/xmc_can.c **** 
 316:../Libraries/XMCLib/src/xmc_can.c **** void XMC_CAN_SetBaudrateClockSource(XMC_CAN_t *const obj,const XMC_CAN_CANCLKSRC_t source)
 317:../Libraries/XMCLib/src/xmc_can.c **** {
 977              	 .loc 2 317 0
 978              	 .cfi_startproc
 979              	 
 980              	 
 981              	 
 982 0000 80B4     	 push {r7}
 983              	.LCFI60:
 984              	 .cfi_def_cfa_offset 4
 985              	 .cfi_offset 7,-4
 986 0002 83B0     	 sub sp,sp,#12
 987              	.LCFI61:
 988              	 .cfi_def_cfa_offset 16
 989 0004 00AF     	 add r7,sp,#0
 990              	.LCFI62:
 991              	 .cfi_def_cfa_register 7
 992 0006 7860     	 str r0,[r7,#4]
 993 0008 0B46     	 mov r3,r1
 994 000a FB70     	 strb r3,[r7,#3]
 318:../Libraries/XMCLib/src/xmc_can.c ****   obj->MCR = (obj->MCR & ~CAN_MCR_CLKSEL_Msk) | source ;
 995              	 .loc 2 318 0
 996 000c 7B68     	 ldr r3,[r7,#4]
 997 000e D3F8C831 	 ldr r3,[r3,#456]
 998 0012 23F00F02 	 bic r2,r3,#15
 999 0016 FB78     	 ldrb r3,[r7,#3]
 1000 0018 1A43     	 orrs r2,r2,r3
 1001 001a 7B68     	 ldr r3,[r7,#4]
 1002 001c C3F8C821 	 str r2,[r3,#456]
 319:../Libraries/XMCLib/src/xmc_can.c **** }
 1003              	 .loc 2 319 0
 1004 0020 0C37     	 adds r7,r7,#12
 1005              	.LCFI63:
 1006              	 .cfi_def_cfa_offset 4
 1007 0022 BD46     	 mov sp,r7
 1008              	.LCFI64:
 1009              	 .cfi_def_cfa_register 13
 1010              	 
 1011 0024 5DF8047B 	 ldr r7,[sp],#4
 1012              	.LCFI65:
 1013              	 .cfi_restore 7
 1014              	 .cfi_def_cfa_offset 0
 1015 0028 7047     	 bx lr
 1016              	 .cfi_endproc
 1017              	.LFE213:
 1019 002a 00BF     	 .section .text.XMC_CAN_GetBaudrateClockSource,"ax",%progbits
 1020              	 .align 2
 1021              	 .global XMC_CAN_GetBaudrateClockSource
 1022              	 .thumb
 1023              	 .thumb_func
 1025              	XMC_CAN_GetBaudrateClockSource:
 1026              	.LFB214:
 320:../Libraries/XMCLib/src/xmc_can.c **** 
 321:../Libraries/XMCLib/src/xmc_can.c **** XMC_CAN_CANCLKSRC_t XMC_CAN_GetBaudrateClockSource(XMC_CAN_t *const obj)
 322:../Libraries/XMCLib/src/xmc_can.c **** {
 1027              	 .loc 2 322 0
 1028              	 .cfi_startproc
 1029              	 
 1030              	 
 1031              	 
 1032 0000 80B4     	 push {r7}
 1033              	.LCFI66:
 1034              	 .cfi_def_cfa_offset 4
 1035              	 .cfi_offset 7,-4
 1036 0002 83B0     	 sub sp,sp,#12
 1037              	.LCFI67:
 1038              	 .cfi_def_cfa_offset 16
 1039 0004 00AF     	 add r7,sp,#0
 1040              	.LCFI68:
 1041              	 .cfi_def_cfa_register 7
 1042 0006 7860     	 str r0,[r7,#4]
 323:../Libraries/XMCLib/src/xmc_can.c ****   return ((XMC_CAN_CANCLKSRC_t)((obj->MCR & CAN_MCR_CLKSEL_Msk) >> CAN_MCR_CLKSEL_Pos));
 1043              	 .loc 2 323 0
 1044 0008 7B68     	 ldr r3,[r7,#4]
 1045 000a D3F8C831 	 ldr r3,[r3,#456]
 1046 000e DBB2     	 uxtb r3,r3
 1047 0010 03F00F03 	 and r3,r3,#15
 1048 0014 DBB2     	 uxtb r3,r3
 324:../Libraries/XMCLib/src/xmc_can.c **** }
 1049              	 .loc 2 324 0
 1050 0016 1846     	 mov r0,r3
 1051 0018 0C37     	 adds r7,r7,#12
 1052              	.LCFI69:
 1053              	 .cfi_def_cfa_offset 4
 1054 001a BD46     	 mov sp,r7
 1055              	.LCFI70:
 1056              	 .cfi_def_cfa_register 13
 1057              	 
 1058 001c 5DF8047B 	 ldr r7,[sp],#4
 1059              	.LCFI71:
 1060              	 .cfi_restore 7
 1061              	 .cfi_def_cfa_offset 0
 1062 0020 7047     	 bx lr
 1063              	 .cfi_endproc
 1064              	.LFE214:
 1066 0022 00BF     	 .section .text.XMC_CAN_MO_SetIdentifier,"ax",%progbits
 1067              	 .align 2
 1068              	 .global XMC_CAN_MO_SetIdentifier
 1069              	 .thumb
 1070              	 .thumb_func
 1072              	XMC_CAN_MO_SetIdentifier:
 1073              	.LFB215:
 325:../Libraries/XMCLib/src/xmc_can.c **** 
 326:../Libraries/XMCLib/src/xmc_can.c **** #else
 327:../Libraries/XMCLib/src/xmc_can.c **** /* Initialization of XMC_CAN GLOBAL Object */
 328:../Libraries/XMCLib/src/xmc_can.c **** void XMC_CAN_Init(XMC_CAN_t *const obj, uint32_t can_frequency)
 329:../Libraries/XMCLib/src/xmc_can.c **** {
 330:../Libraries/XMCLib/src/xmc_can.c ****   uint32_t  step_n, step_f;
 331:../Libraries/XMCLib/src/xmc_can.c ****   bool normal_divider;
 332:../Libraries/XMCLib/src/xmc_can.c ****   uint32_t freq_n, freq_f;
 333:../Libraries/XMCLib/src/xmc_can.c ****   uint32_t step;
 334:../Libraries/XMCLib/src/xmc_can.c ****   uint32_t can_frequency_khz;
 335:../Libraries/XMCLib/src/xmc_can.c ****   uint32_t peripheral_frequency_khz;
 336:../Libraries/XMCLib/src/xmc_can.c ****   XMC_CAN_DM_t can_divider_mode;
 337:../Libraries/XMCLib/src/xmc_can.c **** 
 338:../Libraries/XMCLib/src/xmc_can.c ****   uint32_t peripheral_frequency = (XMC_SCU_CLOCK_GetPeripheralClockFrequency());
 339:../Libraries/XMCLib/src/xmc_can.c **** 
 340:../Libraries/XMCLib/src/xmc_can.c ****   XMC_ASSERT("XMC_CAN_Init: frequency not supported", can_frequency <= peripheral_frequency);
 341:../Libraries/XMCLib/src/xmc_can.c **** 
 342:../Libraries/XMCLib/src/xmc_can.c ****   /*Enabling the module*/
 343:../Libraries/XMCLib/src/xmc_can.c ****   XMC_CAN_Enable(obj);
 344:../Libraries/XMCLib/src/xmc_can.c **** 
 345:../Libraries/XMCLib/src/xmc_can.c ****   /* Normal divider mode */
 346:../Libraries/XMCLib/src/xmc_can.c ****   step_n = (uint32_t)min(max(0U, (1024U - (peripheral_frequency / can_frequency))), 1023U);
 347:../Libraries/XMCLib/src/xmc_can.c ****   freq_n = (uint32_t) (peripheral_frequency / (1024U - step_n));
 348:../Libraries/XMCLib/src/xmc_can.c **** 
 349:../Libraries/XMCLib/src/xmc_can.c ****   /* Fractional divider mode */
 350:../Libraries/XMCLib/src/xmc_can.c ****   can_frequency_khz = (uint32_t) (can_frequency >> 6);
 351:../Libraries/XMCLib/src/xmc_can.c ****   peripheral_frequency_khz = (uint32_t)(peripheral_frequency >> 6);
 352:../Libraries/XMCLib/src/xmc_can.c **** 
 353:../Libraries/XMCLib/src/xmc_can.c ****   step_f = (uint32_t)(min( (((1024U * can_frequency_khz) / peripheral_frequency_khz) ), 1023U ));
 354:../Libraries/XMCLib/src/xmc_can.c ****   freq_f = (uint32_t)((peripheral_frequency_khz * step_f) / 1024U);
 355:../Libraries/XMCLib/src/xmc_can.c ****   freq_f = freq_f << 6;
 356:../Libraries/XMCLib/src/xmc_can.c **** 
 357:../Libraries/XMCLib/src/xmc_can.c ****   normal_divider  = (uint32_t)(can_frequency - freq_n) <= (can_frequency - freq_f);
 358:../Libraries/XMCLib/src/xmc_can.c **** 
 359:../Libraries/XMCLib/src/xmc_can.c ****   step   = (normal_divider != 0U) ? step_n : step_f;
 360:../Libraries/XMCLib/src/xmc_can.c ****   can_divider_mode = (normal_divider != 0U) ? XMC_CAN_DM_NORMAL : XMC_CAN_DM_FRACTIONAL;
 361:../Libraries/XMCLib/src/xmc_can.c **** 
 362:../Libraries/XMCLib/src/xmc_can.c ****   obj->FDR &= (uint32_t) ~(CAN_FDR_DM_Msk | CAN_FDR_STEP_Msk);
 363:../Libraries/XMCLib/src/xmc_can.c ****   obj->FDR |= ((uint32_t)can_divider_mode << CAN_FDR_DM_Pos) | ((uint32_t)step << CAN_FDR_STEP_Pos)
 364:../Libraries/XMCLib/src/xmc_can.c **** }
 365:../Libraries/XMCLib/src/xmc_can.c **** #endif
 366:../Libraries/XMCLib/src/xmc_can.c **** 
 367:../Libraries/XMCLib/src/xmc_can.c **** /* Sets the Identifier of the MO */
 368:../Libraries/XMCLib/src/xmc_can.c **** void XMC_CAN_MO_SetIdentifier(XMC_CAN_MO_t *const can_mo, const uint32_t can_identifier)
 369:../Libraries/XMCLib/src/xmc_can.c **** {
 1074              	 .loc 2 369 0
 1075              	 .cfi_startproc
 1076              	 
 1077              	 
 1078              	 
 1079 0000 80B4     	 push {r7}
 1080              	.LCFI72:
 1081              	 .cfi_def_cfa_offset 4
 1082              	 .cfi_offset 7,-4
 1083 0002 83B0     	 sub sp,sp,#12
 1084              	.LCFI73:
 1085              	 .cfi_def_cfa_offset 16
 1086 0004 00AF     	 add r7,sp,#0
 1087              	.LCFI74:
 1088              	 .cfi_def_cfa_register 7
 1089 0006 7860     	 str r0,[r7,#4]
 1090 0008 3960     	 str r1,[r7]
 370:../Libraries/XMCLib/src/xmc_can.c ****   if ((can_mo->can_mo_ptr->MOAR & CAN_MO_MOAR_IDE_Msk) != (uint32_t)CAN_MO_MOAR_IDE_Msk)
 1091              	 .loc 2 370 0
 1092 000a 7B68     	 ldr r3,[r7,#4]
 1093 000c 1B68     	 ldr r3,[r3]
 1094 000e 9B69     	 ldr r3,[r3,#24]
 1095 0010 03F00053 	 and r3,r3,#536870912
 1096 0014 002B     	 cmp r3,#0
 1097 0016 0DD1     	 bne .L53
 371:../Libraries/XMCLib/src/xmc_can.c ****   {
 372:../Libraries/XMCLib/src/xmc_can.c ****     can_mo->can_mo_ptr->MOAR = ((can_mo->can_mo_ptr->MOAR) & ~(uint32_t)(CAN_MO_MOAR_ID_Msk)) |
 1098              	 .loc 2 372 0
 1099 0018 7B68     	 ldr r3,[r7,#4]
 1100 001a 1B68     	 ldr r3,[r3]
 1101 001c 7A68     	 ldr r2,[r7,#4]
 1102 001e 1268     	 ldr r2,[r2]
 1103 0020 9269     	 ldr r2,[r2,#24]
 1104 0022 02F06041 	 and r1,r2,#-536870912
 373:../Libraries/XMCLib/src/xmc_can.c **** 	                           ((can_identifier << XMC_CAN_MO_MOAR_STDID_Pos) & (uint32_t)CAN_MO_MOAR_
 1105              	 .loc 2 373 0
 1106 0026 3A68     	 ldr r2,[r7]
 1107 0028 9204     	 lsls r2,r2,#18
 1108 002a 22F06042 	 bic r2,r2,#-536870912
 372:../Libraries/XMCLib/src/xmc_can.c **** 	                           ((can_identifier << XMC_CAN_MO_MOAR_STDID_Pos) & (uint32_t)CAN_MO_MOAR_
 1109              	 .loc 2 372 0
 1110 002e 0A43     	 orrs r2,r2,r1
 1111 0030 9A61     	 str r2,[r3,#24]
 1112 0032 0BE0     	 b .L54
 1113              	.L53:
 374:../Libraries/XMCLib/src/xmc_can.c ****   }
 375:../Libraries/XMCLib/src/xmc_can.c ****   else
 376:../Libraries/XMCLib/src/xmc_can.c ****   {
 377:../Libraries/XMCLib/src/xmc_can.c ****     can_mo->can_mo_ptr->MOAR = ((can_mo->can_mo_ptr->MOAR) & ~(uint32_t)(CAN_MO_MOAR_ID_Msk)) |
 1114              	 .loc 2 377 0
 1115 0034 7B68     	 ldr r3,[r7,#4]
 1116 0036 1B68     	 ldr r3,[r3]
 1117 0038 7A68     	 ldr r2,[r7,#4]
 1118 003a 1268     	 ldr r2,[r2]
 1119 003c 9269     	 ldr r2,[r2,#24]
 1120 003e 02F06041 	 and r1,r2,#-536870912
 378:../Libraries/XMCLib/src/xmc_can.c ****     		                   (can_identifier & (uint32_t)CAN_MO_MOAR_ID_Msk);
 1121              	 .loc 2 378 0
 1122 0042 3A68     	 ldr r2,[r7]
 1123 0044 22F06042 	 bic r2,r2,#-536870912
 377:../Libraries/XMCLib/src/xmc_can.c ****     		                   (can_identifier & (uint32_t)CAN_MO_MOAR_ID_Msk);
 1124              	 .loc 2 377 0
 1125 0048 0A43     	 orrs r2,r2,r1
 1126 004a 9A61     	 str r2,[r3,#24]
 1127              	.L54:
 379:../Libraries/XMCLib/src/xmc_can.c ****   }
 380:../Libraries/XMCLib/src/xmc_can.c ****   can_mo->can_identifier = can_identifier;
 1128              	 .loc 2 380 0
 1129 004c 3B68     	 ldr r3,[r7]
 1130 004e 23F06041 	 bic r1,r3,#-536870912
 1131 0052 7A68     	 ldr r2,[r7,#4]
 1132 0054 5368     	 ldr r3,[r2,#4]
 1133 0056 61F31C03 	 bfi r3,r1,#0,#29
 1134 005a 5360     	 str r3,[r2,#4]
 381:../Libraries/XMCLib/src/xmc_can.c **** }
 1135              	 .loc 2 381 0
 1136 005c 0C37     	 adds r7,r7,#12
 1137              	.LCFI75:
 1138              	 .cfi_def_cfa_offset 4
 1139 005e BD46     	 mov sp,r7
 1140              	.LCFI76:
 1141              	 .cfi_def_cfa_register 13
 1142              	 
 1143 0060 5DF8047B 	 ldr r7,[sp],#4
 1144              	.LCFI77:
 1145              	 .cfi_restore 7
 1146              	 .cfi_def_cfa_offset 0
 1147 0064 7047     	 bx lr
 1148              	 .cfi_endproc
 1149              	.LFE215:
 1151 0066 00BF     	 .section .text.XMC_CAN_MO_GetIdentifier,"ax",%progbits
 1152              	 .align 2
 1153              	 .global XMC_CAN_MO_GetIdentifier
 1154              	 .thumb
 1155              	 .thumb_func
 1157              	XMC_CAN_MO_GetIdentifier:
 1158              	.LFB216:
 382:../Libraries/XMCLib/src/xmc_can.c **** 
 383:../Libraries/XMCLib/src/xmc_can.c **** 
 384:../Libraries/XMCLib/src/xmc_can.c **** /* Gets the Identifier of the MO */
 385:../Libraries/XMCLib/src/xmc_can.c **** uint32_t XMC_CAN_MO_GetIdentifier(const XMC_CAN_MO_t *const can_mo)
 386:../Libraries/XMCLib/src/xmc_can.c **** {
 1159              	 .loc 2 386 0
 1160              	 .cfi_startproc
 1161              	 
 1162              	 
 1163              	 
 1164 0000 80B4     	 push {r7}
 1165              	.LCFI78:
 1166              	 .cfi_def_cfa_offset 4
 1167              	 .cfi_offset 7,-4
 1168 0002 85B0     	 sub sp,sp,#20
 1169              	.LCFI79:
 1170              	 .cfi_def_cfa_offset 24
 1171 0004 00AF     	 add r7,sp,#0
 1172              	.LCFI80:
 1173              	 .cfi_def_cfa_register 7
 1174 0006 7860     	 str r0,[r7,#4]
 387:../Libraries/XMCLib/src/xmc_can.c ****   uint32_t identifier;
 388:../Libraries/XMCLib/src/xmc_can.c ****   if ((can_mo->can_mo_ptr->MOAR & CAN_MO_MOAR_IDE_Msk) != (uint32_t)CAN_MO_MOAR_IDE_Msk)
 1175              	 .loc 2 388 0
 1176 0008 7B68     	 ldr r3,[r7,#4]
 1177 000a 1B68     	 ldr r3,[r3]
 1178 000c 9B69     	 ldr r3,[r3,#24]
 1179 000e 03F00053 	 and r3,r3,#536870912
 1180 0012 002B     	 cmp r3,#0
 1181 0014 07D1     	 bne .L56
 389:../Libraries/XMCLib/src/xmc_can.c ****   {
 390:../Libraries/XMCLib/src/xmc_can.c **** 	identifier = ((can_mo->can_mo_ptr->MOAR) & (uint32_t)(CAN_MO_MOAR_ID_Msk)) >> XMC_CAN_MO_MOAR_STDI
 1182              	 .loc 2 390 0
 1183 0016 7B68     	 ldr r3,[r7,#4]
 1184 0018 1B68     	 ldr r3,[r3]
 1185 001a 9B69     	 ldr r3,[r3,#24]
 1186 001c 23F06043 	 bic r3,r3,#-536870912
 1187 0020 9B0C     	 lsrs r3,r3,#18
 1188 0022 FB60     	 str r3,[r7,#12]
 1189 0024 05E0     	 b .L57
 1190              	.L56:
 391:../Libraries/XMCLib/src/xmc_can.c ****   }
 392:../Libraries/XMCLib/src/xmc_can.c ****   else
 393:../Libraries/XMCLib/src/xmc_can.c ****   {
 394:../Libraries/XMCLib/src/xmc_can.c **** 	identifier = ((can_mo->can_mo_ptr->MOAR) & (uint32_t)(CAN_MO_MOAR_ID_Msk));
 1191              	 .loc 2 394 0
 1192 0026 7B68     	 ldr r3,[r7,#4]
 1193 0028 1B68     	 ldr r3,[r3]
 1194 002a 9B69     	 ldr r3,[r3,#24]
 1195 002c 23F06043 	 bic r3,r3,#-536870912
 1196 0030 FB60     	 str r3,[r7,#12]
 1197              	.L57:
 395:../Libraries/XMCLib/src/xmc_can.c ****   }
 396:../Libraries/XMCLib/src/xmc_can.c ****   return identifier;
 1198              	 .loc 2 396 0
 1199 0032 FB68     	 ldr r3,[r7,#12]
 397:../Libraries/XMCLib/src/xmc_can.c **** }
 1200              	 .loc 2 397 0
 1201 0034 1846     	 mov r0,r3
 1202 0036 1437     	 adds r7,r7,#20
 1203              	.LCFI81:
 1204              	 .cfi_def_cfa_offset 4
 1205 0038 BD46     	 mov sp,r7
 1206              	.LCFI82:
 1207              	 .cfi_def_cfa_register 13
 1208              	 
 1209 003a 5DF8047B 	 ldr r7,[sp],#4
 1210              	.LCFI83:
 1211              	 .cfi_restore 7
 1212              	 .cfi_def_cfa_offset 0
 1213 003e 7047     	 bx lr
 1214              	 .cfi_endproc
 1215              	.LFE216:
 1217              	 .section .text.XMC_CAN_MO_GetAcceptanceMask,"ax",%progbits
 1218              	 .align 2
 1219              	 .global XMC_CAN_MO_GetAcceptanceMask
 1220              	 .thumb
 1221              	 .thumb_func
 1223              	XMC_CAN_MO_GetAcceptanceMask:
 1224              	.LFB217:
 398:../Libraries/XMCLib/src/xmc_can.c **** 
 399:../Libraries/XMCLib/src/xmc_can.c **** /* Gets the acceptance mask for the CAN MO. */
 400:../Libraries/XMCLib/src/xmc_can.c **** uint32_t XMC_CAN_MO_GetAcceptanceMask(const XMC_CAN_MO_t *const can_mo)
 401:../Libraries/XMCLib/src/xmc_can.c **** {
 1225              	 .loc 2 401 0
 1226              	 .cfi_startproc
 1227              	 
 1228              	 
 1229              	 
 1230 0000 80B4     	 push {r7}
 1231              	.LCFI84:
 1232              	 .cfi_def_cfa_offset 4
 1233              	 .cfi_offset 7,-4
 1234 0002 85B0     	 sub sp,sp,#20
 1235              	.LCFI85:
 1236              	 .cfi_def_cfa_offset 24
 1237 0004 00AF     	 add r7,sp,#0
 1238              	.LCFI86:
 1239              	 .cfi_def_cfa_register 7
 1240 0006 7860     	 str r0,[r7,#4]
 402:../Libraries/XMCLib/src/xmc_can.c ****   uint32_t identifier_mask;
 403:../Libraries/XMCLib/src/xmc_can.c ****   if (((can_mo->can_mo_ptr->MOAMR & CAN_MO_MOAMR_MIDE_Msk) != (uint32_t)CAN_MO_MOAMR_MIDE_Msk)
 1241              	 .loc 2 403 0
 1242 0008 7B68     	 ldr r3,[r7,#4]
 1243 000a 1B68     	 ldr r3,[r3]
 1244 000c DB68     	 ldr r3,[r3,#12]
 1245 000e 03F00053 	 and r3,r3,#536870912
 1246 0012 002B     	 cmp r3,#0
 1247 0014 0ED1     	 bne .L60
 404:../Libraries/XMCLib/src/xmc_can.c ****             && ((can_mo->can_mo_ptr->MOAR & CAN_MO_MOAR_IDE_Msk) != (uint32_t)CAN_MO_MOAR_IDE_Msk))
 1248              	 .loc 2 404 0
 1249 0016 7B68     	 ldr r3,[r7,#4]
 1250 0018 1B68     	 ldr r3,[r3]
 1251 001a 9B69     	 ldr r3,[r3,#24]
 1252 001c 03F00053 	 and r3,r3,#536870912
 1253 0020 002B     	 cmp r3,#0
 1254 0022 07D1     	 bne .L60
 405:../Libraries/XMCLib/src/xmc_can.c ****   {
 406:../Libraries/XMCLib/src/xmc_can.c ****     identifier_mask = ((can_mo->can_mo_ptr->MOAMR) & (uint32_t)(CAN_MO_MOAMR_AM_Msk)) >> XMC_CAN_MO
 1255              	 .loc 2 406 0
 1256 0024 7B68     	 ldr r3,[r7,#4]
 1257 0026 1B68     	 ldr r3,[r3]
 1258 0028 DB68     	 ldr r3,[r3,#12]
 1259 002a 23F06043 	 bic r3,r3,#-536870912
 1260 002e 9B0C     	 lsrs r3,r3,#18
 1261 0030 FB60     	 str r3,[r7,#12]
 1262 0032 05E0     	 b .L61
 1263              	.L60:
 407:../Libraries/XMCLib/src/xmc_can.c ****   }
 408:../Libraries/XMCLib/src/xmc_can.c ****   else
 409:../Libraries/XMCLib/src/xmc_can.c ****   {
 410:../Libraries/XMCLib/src/xmc_can.c ****     identifier_mask = ((can_mo->can_mo_ptr->MOAMR) & (uint32_t)(CAN_MO_MOAMR_AM_Msk));
 1264              	 .loc 2 410 0
 1265 0034 7B68     	 ldr r3,[r7,#4]
 1266 0036 1B68     	 ldr r3,[r3]
 1267 0038 DB68     	 ldr r3,[r3,#12]
 1268 003a 23F06043 	 bic r3,r3,#-536870912
 1269 003e FB60     	 str r3,[r7,#12]
 1270              	.L61:
 411:../Libraries/XMCLib/src/xmc_can.c ****   }
 412:../Libraries/XMCLib/src/xmc_can.c ****   return identifier_mask;
 1271              	 .loc 2 412 0
 1272 0040 FB68     	 ldr r3,[r7,#12]
 413:../Libraries/XMCLib/src/xmc_can.c **** }
 1273              	 .loc 2 413 0
 1274 0042 1846     	 mov r0,r3
 1275 0044 1437     	 adds r7,r7,#20
 1276              	.LCFI87:
 1277              	 .cfi_def_cfa_offset 4
 1278 0046 BD46     	 mov sp,r7
 1279              	.LCFI88:
 1280              	 .cfi_def_cfa_register 13
 1281              	 
 1282 0048 5DF8047B 	 ldr r7,[sp],#4
 1283              	.LCFI89:
 1284              	 .cfi_restore 7
 1285              	 .cfi_def_cfa_offset 0
 1286 004c 7047     	 bx lr
 1287              	 .cfi_endproc
 1288              	.LFE217:
 1290 004e 00BF     	 .section .text.XMC_CAN_MO_SetAcceptanceMask,"ax",%progbits
 1291              	 .align 2
 1292              	 .global XMC_CAN_MO_SetAcceptanceMask
 1293              	 .thumb
 1294              	 .thumb_func
 1296              	XMC_CAN_MO_SetAcceptanceMask:
 1297              	.LFB218:
 414:../Libraries/XMCLib/src/xmc_can.c **** 
 415:../Libraries/XMCLib/src/xmc_can.c **** /* Gets the acceptance mask of the MO */
 416:../Libraries/XMCLib/src/xmc_can.c **** void XMC_CAN_MO_SetAcceptanceMask(XMC_CAN_MO_t *const can_mo,const uint32_t can_id_mask)
 417:../Libraries/XMCLib/src/xmc_can.c **** {
 1298              	 .loc 2 417 0
 1299              	 .cfi_startproc
 1300              	 
 1301              	 
 1302              	 
 1303 0000 80B4     	 push {r7}
 1304              	.LCFI90:
 1305              	 .cfi_def_cfa_offset 4
 1306              	 .cfi_offset 7,-4
 1307 0002 83B0     	 sub sp,sp,#12
 1308              	.LCFI91:
 1309              	 .cfi_def_cfa_offset 16
 1310 0004 00AF     	 add r7,sp,#0
 1311              	.LCFI92:
 1312              	 .cfi_def_cfa_register 7
 1313 0006 7860     	 str r0,[r7,#4]
 1314 0008 3960     	 str r1,[r7]
 418:../Libraries/XMCLib/src/xmc_can.c ****   if (((can_mo->can_mo_ptr->MOAMR & CAN_MO_MOAMR_MIDE_Msk) != (uint32_t)CAN_MO_MOAMR_MIDE_Msk)
 1315              	 .loc 2 418 0
 1316 000a 7B68     	 ldr r3,[r7,#4]
 1317 000c 1B68     	 ldr r3,[r3]
 1318 000e DB68     	 ldr r3,[r3,#12]
 1319 0010 03F00053 	 and r3,r3,#536870912
 1320 0014 002B     	 cmp r3,#0
 1321 0016 12D1     	 bne .L64
 419:../Libraries/XMCLib/src/xmc_can.c ****           && ((can_mo->can_mo_ptr->MOAR & CAN_MO_MOAR_IDE_Msk) != (uint32_t)CAN_MO_MOAR_IDE_Msk))
 1322              	 .loc 2 419 0
 1323 0018 7B68     	 ldr r3,[r7,#4]
 1324 001a 1B68     	 ldr r3,[r3]
 1325 001c 9B69     	 ldr r3,[r3,#24]
 1326 001e 03F00053 	 and r3,r3,#536870912
 1327 0022 002B     	 cmp r3,#0
 1328 0024 0BD1     	 bne .L64
 420:../Libraries/XMCLib/src/xmc_can.c ****   {
 421:../Libraries/XMCLib/src/xmc_can.c **** 	can_mo->can_mo_ptr->MOAMR = ((can_mo->can_mo_ptr->MOAMR) & ~(uint32_t)(CAN_MO_MOAMR_AM_Msk)) |
 1329              	 .loc 2 421 0
 1330 0026 7B68     	 ldr r3,[r7,#4]
 1331 0028 1B68     	 ldr r3,[r3]
 1332 002a 7A68     	 ldr r2,[r7,#4]
 1333 002c 1268     	 ldr r2,[r2]
 1334 002e D268     	 ldr r2,[r2,#12]
 1335 0030 02F06041 	 and r1,r2,#-536870912
 422:../Libraries/XMCLib/src/xmc_can.c **** 							    (can_id_mask << XMC_CAN_MO_MOAR_STDID_Pos);
 1336              	 .loc 2 422 0
 1337 0034 3A68     	 ldr r2,[r7]
 1338 0036 9204     	 lsls r2,r2,#18
 421:../Libraries/XMCLib/src/xmc_can.c **** 							    (can_id_mask << XMC_CAN_MO_MOAR_STDID_Pos);
 1339              	 .loc 2 421 0
 1340 0038 0A43     	 orrs r2,r2,r1
 1341 003a DA60     	 str r2,[r3,#12]
 1342 003c 0BE0     	 b .L65
 1343              	.L64:
 423:../Libraries/XMCLib/src/xmc_can.c ****   }
 424:../Libraries/XMCLib/src/xmc_can.c ****   else
 425:../Libraries/XMCLib/src/xmc_can.c ****   {
 426:../Libraries/XMCLib/src/xmc_can.c **** 	can_mo->can_mo_ptr->MOAMR = ((can_mo->can_mo_ptr->MOAMR) & ~(uint32_t)(CAN_MO_MOAMR_AM_Msk)) |
 1344              	 .loc 2 426 0
 1345 003e 7B68     	 ldr r3,[r7,#4]
 1346 0040 1B68     	 ldr r3,[r3]
 1347 0042 7A68     	 ldr r2,[r7,#4]
 1348 0044 1268     	 ldr r2,[r2]
 1349 0046 D268     	 ldr r2,[r2,#12]
 1350 0048 02F06041 	 and r1,r2,#-536870912
 427:../Libraries/XMCLib/src/xmc_can.c **** 							    (can_id_mask & (uint32_t)CAN_MO_MOAMR_AM_Msk);
 1351              	 .loc 2 427 0
 1352 004c 3A68     	 ldr r2,[r7]
 1353 004e 22F06042 	 bic r2,r2,#-536870912
 426:../Libraries/XMCLib/src/xmc_can.c **** 							    (can_id_mask & (uint32_t)CAN_MO_MOAMR_AM_Msk);
 1354              	 .loc 2 426 0
 1355 0052 0A43     	 orrs r2,r2,r1
 1356 0054 DA60     	 str r2,[r3,#12]
 1357              	.L65:
 428:../Libraries/XMCLib/src/xmc_can.c ****   }
 429:../Libraries/XMCLib/src/xmc_can.c ****   can_mo->can_id_mask = can_id_mask;
 1358              	 .loc 2 429 0
 1359 0056 3B68     	 ldr r3,[r7]
 1360 0058 23F06041 	 bic r1,r3,#-536870912
 1361 005c 7A68     	 ldr r2,[r7,#4]
 1362 005e 9368     	 ldr r3,[r2,#8]
 1363 0060 61F31C03 	 bfi r3,r1,#0,#29
 1364 0064 9360     	 str r3,[r2,#8]
 430:../Libraries/XMCLib/src/xmc_can.c **** }
 1365              	 .loc 2 430 0
 1366 0066 0C37     	 adds r7,r7,#12
 1367              	.LCFI93:
 1368              	 .cfi_def_cfa_offset 4
 1369 0068 BD46     	 mov sp,r7
 1370              	.LCFI94:
 1371              	 .cfi_def_cfa_register 13
 1372              	 
 1373 006a 5DF8047B 	 ldr r7,[sp],#4
 1374              	.LCFI95:
 1375              	 .cfi_restore 7
 1376              	 .cfi_def_cfa_offset 0
 1377 006e 7047     	 bx lr
 1378              	 .cfi_endproc
 1379              	.LFE218:
 1381              	 .section .text.XMC_CAN_MO_Config,"ax",%progbits
 1382              	 .align 2
 1383              	 .global XMC_CAN_MO_Config
 1384              	 .thumb
 1385              	 .thumb_func
 1387              	XMC_CAN_MO_Config:
 1388              	.LFB219:
 431:../Libraries/XMCLib/src/xmc_can.c **** 
 432:../Libraries/XMCLib/src/xmc_can.c **** /* Initialization of XMC_CAN MO Object */
 433:../Libraries/XMCLib/src/xmc_can.c **** void XMC_CAN_MO_Config(const XMC_CAN_MO_t *const can_mo)
 434:../Libraries/XMCLib/src/xmc_can.c **** {
 1389              	 .loc 2 434 0
 1390              	 .cfi_startproc
 1391              	 
 1392              	 
 1393 0000 80B5     	 push {r7,lr}
 1394              	.LCFI96:
 1395              	 .cfi_def_cfa_offset 8
 1396              	 .cfi_offset 7,-8
 1397              	 .cfi_offset 14,-4
 1398 0002 84B0     	 sub sp,sp,#16
 1399              	.LCFI97:
 1400              	 .cfi_def_cfa_offset 24
 1401 0004 00AF     	 add r7,sp,#0
 1402              	.LCFI98:
 1403              	 .cfi_def_cfa_register 7
 1404 0006 7860     	 str r0,[r7,#4]
 435:../Libraries/XMCLib/src/xmc_can.c ****   uint32_t reg;
 436:../Libraries/XMCLib/src/xmc_can.c ****   /* Configure MPN */
 437:../Libraries/XMCLib/src/xmc_can.c ****   uint32_t num = ((uint32_t)(can_mo->can_mo_ptr) - CAN_BASE - 0x1000U)/0x0020U;
 1405              	 .loc 2 437 0
 1406 0008 7B68     	 ldr r3,[r7,#4]
 1407 000a 1B68     	 ldr r3,[r3]
 1408 000c 03F13843 	 add r3,r3,#-1207959552
 1409 0010 A3F5A833 	 sub r3,r3,#86016
 1410 0014 5B09     	 lsrs r3,r3,#5
 1411 0016 FB60     	 str r3,[r7,#12]
 438:../Libraries/XMCLib/src/xmc_can.c ****   can_mo->can_mo_ptr->MOIPR = (((uint32_t)(num/32) << (CAN_MO_MOIPR_MPN_Pos + 5U)) | ((uint32_t)(nu
 1412              	 .loc 2 438 0
 1413 0018 7B68     	 ldr r3,[r7,#4]
 1414 001a 1B68     	 ldr r3,[r3]
 1415 001c FA68     	 ldr r2,[r7,#12]
 1416 001e 5209     	 lsrs r2,r2,#5
 1417 0020 5103     	 lsls r1,r2,#13
 1418 0022 FA68     	 ldr r2,[r7,#12]
 1419 0024 02F01F02 	 and r2,r2,#31
 1420 0028 1202     	 lsls r2,r2,#8
 1421 002a 0A43     	 orrs r2,r2,r1
 1422 002c 9A60     	 str r2,[r3,#8]
 439:../Libraries/XMCLib/src/xmc_can.c **** 
 440:../Libraries/XMCLib/src/xmc_can.c ****   if (((can_mo->can_id_mode != (uint32_t) XMC_CAN_FRAME_TYPE_STANDARD_11BITS) &&
 1423              	 .loc 2 440 0
 1424 002e 7B68     	 ldr r3,[r7,#4]
 1425 0030 DB79     	 ldrb r3,[r3,#7]
 1426 0032 03F02003 	 and r3,r3,#32
 1427 0036 DBB2     	 uxtb r3,r3
 1428 0038 002B     	 cmp r3,#0
 1429 003a 07D0     	 beq .L67
 441:../Libraries/XMCLib/src/xmc_can.c ****        (can_mo->can_id_mode != (uint32_t) XMC_CAN_FRAME_TYPE_EXTENDED_29BITS)) ||
 1430              	 .loc 2 441 0 discriminator 1
 1431 003c 7B68     	 ldr r3,[r7,#4]
 1432 003e DB79     	 ldrb r3,[r3,#7]
 1433 0040 03F02003 	 and r3,r3,#32
 1434 0044 DBB2     	 uxtb r3,r3
 440:../Libraries/XMCLib/src/xmc_can.c ****        (can_mo->can_id_mode != (uint32_t) XMC_CAN_FRAME_TYPE_EXTENDED_29BITS)) ||
 1435              	 .loc 2 440 0 discriminator 1
 1436 0046 002B     	 cmp r3,#0
 1437 0048 00D1     	 bne .L67
 440:../Libraries/XMCLib/src/xmc_can.c ****        (can_mo->can_id_mode != (uint32_t) XMC_CAN_FRAME_TYPE_EXTENDED_29BITS)) ||
 1438              	 .loc 2 440 0 is_stmt 0
 1439 004a 5CE0     	 b .L66
 1440              	.L67:
 442:../Libraries/XMCLib/src/xmc_can.c ****       ((can_mo->can_mo_type != XMC_CAN_MO_TYPE_RECMSGOBJ) &&
 1441              	 .loc 2 442 0 is_stmt 1
 1442 004c 7B68     	 ldr r3,[r7,#4]
 1443 004e 1B7E     	 ldrb r3,[r3,#24]
 441:../Libraries/XMCLib/src/xmc_can.c ****        (can_mo->can_id_mode != (uint32_t) XMC_CAN_FRAME_TYPE_EXTENDED_29BITS)) ||
 1444              	 .loc 2 441 0
 1445 0050 002B     	 cmp r3,#0
 1446 0052 04D0     	 beq .L69
 443:../Libraries/XMCLib/src/xmc_can.c ****        (can_mo->can_mo_type != XMC_CAN_MO_TYPE_TRANSMSGOBJ)))
 1447              	 .loc 2 443 0
 1448 0054 7B68     	 ldr r3,[r7,#4]
 1449 0056 1B7E     	 ldrb r3,[r3,#24]
 442:../Libraries/XMCLib/src/xmc_can.c ****       ((can_mo->can_mo_type != XMC_CAN_MO_TYPE_RECMSGOBJ) &&
 1450              	 .loc 2 442 0
 1451 0058 012B     	 cmp r3,#1
 1452 005a 00D0     	 beq .L69
 1453 005c 53E0     	 b .L66
 1454              	.L69:
 444:../Libraries/XMCLib/src/xmc_can.c ****   {
 445:../Libraries/XMCLib/src/xmc_can.c ****     ; /*Do nothing*/
 446:../Libraries/XMCLib/src/xmc_can.c ****   }
 447:../Libraries/XMCLib/src/xmc_can.c ****   else
 448:../Libraries/XMCLib/src/xmc_can.c ****   {
 449:../Libraries/XMCLib/src/xmc_can.c **** 
 450:../Libraries/XMCLib/src/xmc_can.c ****     /* Disable Message object */
 451:../Libraries/XMCLib/src/xmc_can.c ****     can_mo->can_mo_ptr->MOCTR = CAN_MO_MOCTR_RESMSGVAL_Msk;
 1455              	 .loc 2 451 0
 1456 005e 7B68     	 ldr r3,[r7,#4]
 1457 0060 1B68     	 ldr r3,[r3]
 1458 0062 2022     	 movs r2,#32
 1459 0064 DA61     	 str r2,[r3,#28]
 452:../Libraries/XMCLib/src/xmc_can.c ****     if (can_mo->can_id_mode == (uint32_t)XMC_CAN_FRAME_TYPE_STANDARD_11BITS)
 1460              	 .loc 2 452 0
 1461 0066 7B68     	 ldr r3,[r7,#4]
 1462 0068 DB79     	 ldrb r3,[r3,#7]
 1463 006a 03F02003 	 and r3,r3,#32
 1464 006e DBB2     	 uxtb r3,r3
 1465 0070 002B     	 cmp r3,#0
 1466 0072 28D1     	 bne .L70
 453:../Libraries/XMCLib/src/xmc_can.c ****     {
 454:../Libraries/XMCLib/src/xmc_can.c ****       reg = can_mo->mo_ar;
 1467              	 .loc 2 454 0
 1468 0074 7B68     	 ldr r3,[r7,#4]
 1469 0076 5B68     	 ldr r3,[r3,#4]
 1470 0078 BB60     	 str r3,[r7,#8]
 455:../Libraries/XMCLib/src/xmc_can.c ****       reg &= (uint32_t) ~(CAN_MO_MOAR_ID_Msk);
 1471              	 .loc 2 455 0
 1472 007a BB68     	 ldr r3,[r7,#8]
 1473 007c 03F06043 	 and r3,r3,#-536870912
 1474 0080 BB60     	 str r3,[r7,#8]
 456:../Libraries/XMCLib/src/xmc_can.c ****       reg |= (can_mo->can_identifier << XMC_CAN_MO_MOAR_STDID_Pos);
 1475              	 .loc 2 456 0
 1476 0082 7B68     	 ldr r3,[r7,#4]
 1477 0084 5B68     	 ldr r3,[r3,#4]
 1478 0086 C3F31C03 	 ubfx r3,r3,#0,#29
 1479 008a 9B04     	 lsls r3,r3,#18
 1480 008c 1A46     	 mov r2,r3
 1481 008e BB68     	 ldr r3,[r7,#8]
 1482 0090 1343     	 orrs r3,r3,r2
 1483 0092 BB60     	 str r3,[r7,#8]
 457:../Libraries/XMCLib/src/xmc_can.c ****       can_mo->can_mo_ptr->MOAR = reg;
 1484              	 .loc 2 457 0
 1485 0094 7B68     	 ldr r3,[r7,#4]
 1486 0096 1B68     	 ldr r3,[r3]
 1487 0098 BA68     	 ldr r2,[r7,#8]
 1488 009a 9A61     	 str r2,[r3,#24]
 458:../Libraries/XMCLib/src/xmc_can.c **** 
 459:../Libraries/XMCLib/src/xmc_can.c ****       reg = can_mo->mo_amr;
 1489              	 .loc 2 459 0
 1490 009c 7B68     	 ldr r3,[r7,#4]
 1491 009e 9B68     	 ldr r3,[r3,#8]
 1492 00a0 BB60     	 str r3,[r7,#8]
 460:../Libraries/XMCLib/src/xmc_can.c ****       reg &= (uint32_t) ~(CAN_MO_MOAMR_AM_Msk);
 1493              	 .loc 2 460 0
 1494 00a2 BB68     	 ldr r3,[r7,#8]
 1495 00a4 03F06043 	 and r3,r3,#-536870912
 1496 00a8 BB60     	 str r3,[r7,#8]
 461:../Libraries/XMCLib/src/xmc_can.c ****       reg |= (can_mo->can_id_mask << XMC_CAN_MO_MOAR_STDID_Pos);
 1497              	 .loc 2 461 0
 1498 00aa 7B68     	 ldr r3,[r7,#4]
 1499 00ac 9B68     	 ldr r3,[r3,#8]
 1500 00ae C3F31C03 	 ubfx r3,r3,#0,#29
 1501 00b2 9B04     	 lsls r3,r3,#18
 1502 00b4 1A46     	 mov r2,r3
 1503 00b6 BB68     	 ldr r3,[r7,#8]
 1504 00b8 1343     	 orrs r3,r3,r2
 1505 00ba BB60     	 str r3,[r7,#8]
 462:../Libraries/XMCLib/src/xmc_can.c ****       can_mo->can_mo_ptr->MOAMR = reg;
 1506              	 .loc 2 462 0
 1507 00bc 7B68     	 ldr r3,[r7,#4]
 1508 00be 1B68     	 ldr r3,[r3]
 1509 00c0 BA68     	 ldr r2,[r7,#8]
 1510 00c2 DA60     	 str r2,[r3,#12]
 1511 00c4 09E0     	 b .L71
 1512              	.L70:
 463:../Libraries/XMCLib/src/xmc_can.c ****     }
 464:../Libraries/XMCLib/src/xmc_can.c ****     else
 465:../Libraries/XMCLib/src/xmc_can.c ****     {
 466:../Libraries/XMCLib/src/xmc_can.c ****       can_mo->can_mo_ptr->MOAR = can_mo->mo_ar;
 1513              	 .loc 2 466 0
 1514 00c6 7B68     	 ldr r3,[r7,#4]
 1515 00c8 1B68     	 ldr r3,[r3]
 1516 00ca 7A68     	 ldr r2,[r7,#4]
 1517 00cc 5268     	 ldr r2,[r2,#4]
 1518 00ce 9A61     	 str r2,[r3,#24]
 467:../Libraries/XMCLib/src/xmc_can.c ****       can_mo->can_mo_ptr->MOAMR = can_mo->mo_amr;
 1519              	 .loc 2 467 0
 1520 00d0 7B68     	 ldr r3,[r7,#4]
 1521 00d2 1B68     	 ldr r3,[r3]
 1522 00d4 7A68     	 ldr r2,[r7,#4]
 1523 00d6 9268     	 ldr r2,[r2,#8]
 1524 00d8 DA60     	 str r2,[r3,#12]
 1525              	.L71:
 468:../Libraries/XMCLib/src/xmc_can.c ****     }
 469:../Libraries/XMCLib/src/xmc_can.c ****     /* Check whether message object is transmit message object */
 470:../Libraries/XMCLib/src/xmc_can.c ****     if (can_mo->can_mo_type == XMC_CAN_MO_TYPE_TRANSMSGOBJ)
 1526              	 .loc 2 470 0
 1527 00da 7B68     	 ldr r3,[r7,#4]
 1528 00dc 1B7E     	 ldrb r3,[r3,#24]
 1529 00de 012B     	 cmp r3,#1
 1530 00e0 08D1     	 bne .L72
 471:../Libraries/XMCLib/src/xmc_can.c ****     {
 472:../Libraries/XMCLib/src/xmc_can.c ****       /* Set MO as Transmit message object  */
 473:../Libraries/XMCLib/src/xmc_can.c ****       XMC_CAN_MO_UpdateData(can_mo);
 1531              	 .loc 2 473 0
 1532 00e2 7868     	 ldr r0,[r7,#4]
 1533 00e4 FFF7FEFF 	 bl XMC_CAN_MO_UpdateData
 474:../Libraries/XMCLib/src/xmc_can.c ****       can_mo->can_mo_ptr->MOCTR = CAN_MO_MOCTR_SETDIR_Msk;
 1534              	 .loc 2 474 0
 1535 00e8 7B68     	 ldr r3,[r7,#4]
 1536 00ea 1B68     	 ldr r3,[r3]
 1537 00ec 4FF00062 	 mov r2,#134217728
 1538 00f0 DA61     	 str r2,[r3,#28]
 1539 00f2 04E0     	 b .L73
 1540              	.L72:
 475:../Libraries/XMCLib/src/xmc_can.c ****     }
 476:../Libraries/XMCLib/src/xmc_can.c ****     else
 477:../Libraries/XMCLib/src/xmc_can.c ****     {
 478:../Libraries/XMCLib/src/xmc_can.c ****       /* Set MO as Receive message object and set RXEN bit */
 479:../Libraries/XMCLib/src/xmc_can.c ****       can_mo->can_mo_ptr->MOCTR = CAN_MO_MOCTR_RESDIR_Msk;
 1541              	 .loc 2 479 0
 1542 00f4 7B68     	 ldr r3,[r7,#4]
 1543 00f6 1B68     	 ldr r3,[r3]
 1544 00f8 4FF40062 	 mov r2,#2048
 1545 00fc DA61     	 str r2,[r3,#28]
 1546              	.L73:
 480:../Libraries/XMCLib/src/xmc_can.c ****     }
 481:../Libraries/XMCLib/src/xmc_can.c **** 
 482:../Libraries/XMCLib/src/xmc_can.c ****     /* Reset RTSEL and Set MSGVAL ,TXEN0 and TXEN1 bits */
 483:../Libraries/XMCLib/src/xmc_can.c ****     can_mo->can_mo_ptr->MOCTR = (CAN_MO_MOCTR_SETTXEN0_Msk | CAN_MO_MOCTR_SETTXEN1_Msk | CAN_MO_MOC
 1547              	 .loc 2 483 0
 1548 00fe 7B68     	 ldr r3,[r7,#4]
 1549 0100 1B68     	 ldr r3,[r3]
 1550 0102 024A     	 ldr r2,.L74
 1551 0104 DA61     	 str r2,[r3,#28]
 1552              	.L66:
 484:../Libraries/XMCLib/src/xmc_can.c ****                                  CAN_MO_MOCTR_SETRXEN_Msk | CAN_MO_MOCTR_RESRTSEL_Msk);
 485:../Libraries/XMCLib/src/xmc_can.c ****   }
 486:../Libraries/XMCLib/src/xmc_can.c **** }
 1553              	 .loc 2 486 0
 1554 0106 1037     	 adds r7,r7,#16
 1555              	.LCFI99:
 1556              	 .cfi_def_cfa_offset 8
 1557 0108 BD46     	 mov sp,r7
 1558              	.LCFI100:
 1559              	 .cfi_def_cfa_register 13
 1560              	 
 1561 010a 80BD     	 pop {r7,pc}
 1562              	.L75:
 1563              	 .align 2
 1564              	.L74:
 1565 010c 4000A006 	 .word 111149120
 1566              	 .cfi_endproc
 1567              	.LFE219:
 1569              	 .section .text.XMC_CAN_MO_UpdateData,"ax",%progbits
 1570              	 .align 2
 1571              	 .global XMC_CAN_MO_UpdateData
 1572              	 .thumb
 1573              	 .thumb_func
 1575              	XMC_CAN_MO_UpdateData:
 1576              	.LFB220:
 487:../Libraries/XMCLib/src/xmc_can.c **** 
 488:../Libraries/XMCLib/src/xmc_can.c **** /* Update of XMC_CAN Object */
 489:../Libraries/XMCLib/src/xmc_can.c **** XMC_CAN_STATUS_t XMC_CAN_MO_UpdateData(const XMC_CAN_MO_t *const can_mo)
 490:../Libraries/XMCLib/src/xmc_can.c **** {
 1577              	 .loc 2 490 0
 1578              	 .cfi_startproc
 1579              	 
 1580              	 
 1581              	 
 1582 0000 80B4     	 push {r7}
 1583              	.LCFI101:
 1584              	 .cfi_def_cfa_offset 4
 1585              	 .cfi_offset 7,-4
 1586 0002 85B0     	 sub sp,sp,#20
 1587              	.LCFI102:
 1588              	 .cfi_def_cfa_offset 24
 1589 0004 00AF     	 add r7,sp,#0
 1590              	.LCFI103:
 1591              	 .cfi_def_cfa_register 7
 1592 0006 7860     	 str r0,[r7,#4]
 491:../Libraries/XMCLib/src/xmc_can.c ****   XMC_CAN_STATUS_t error = XMC_CAN_STATUS_MO_NOT_ACCEPTABLE;
 1593              	 .loc 2 491 0
 1594 0008 0323     	 movs r3,#3
 1595 000a FB73     	 strb r3,[r7,#15]
 492:../Libraries/XMCLib/src/xmc_can.c ****   /* Check whether message object is transmit message object */
 493:../Libraries/XMCLib/src/xmc_can.c ****   if (can_mo->can_mo_type == XMC_CAN_MO_TYPE_TRANSMSGOBJ)
 1596              	 .loc 2 493 0
 1597 000c 7B68     	 ldr r3,[r7,#4]
 1598 000e 1B7E     	 ldrb r3,[r3,#24]
 1599 0010 012B     	 cmp r3,#1
 1600 0012 22D1     	 bne .L77
 494:../Libraries/XMCLib/src/xmc_can.c ****   {
 495:../Libraries/XMCLib/src/xmc_can.c ****     can_mo->can_mo_ptr->MOCTR = CAN_MO_MOCTR_RESMSGVAL_Msk;
 1601              	 .loc 2 495 0
 1602 0014 7B68     	 ldr r3,[r7,#4]
 1603 0016 1B68     	 ldr r3,[r3]
 1604 0018 2022     	 movs r2,#32
 1605 001a DA61     	 str r2,[r3,#28]
 496:../Libraries/XMCLib/src/xmc_can.c ****     /* Configure data length */
 497:../Libraries/XMCLib/src/xmc_can.c ****     can_mo->can_mo_ptr->MOFCR = ((can_mo->can_mo_ptr->MOFCR) & ~(uint32_t)(CAN_MO_MOFCR_DLC_Msk)) |
 1606              	 .loc 2 497 0
 1607 001c 7B68     	 ldr r3,[r7,#4]
 1608 001e 1B68     	 ldr r3,[r3]
 1609 0020 7A68     	 ldr r2,[r7,#4]
 1610 0022 1268     	 ldr r2,[r2]
 1611 0024 1268     	 ldr r2,[r2]
 1612 0026 22F07061 	 bic r1,r2,#251658240
 498:../Libraries/XMCLib/src/xmc_can.c ****                                 (((uint32_t) can_mo->can_data_length << CAN_MO_MOFCR_DLC_Pos) & (ui
 1613              	 .loc 2 498 0
 1614 002a 7A68     	 ldr r2,[r7,#4]
 1615 002c 127B     	 ldrb r2,[r2,#12]
 1616 002e 1206     	 lsls r2,r2,#24
 1617 0030 02F07062 	 and r2,r2,#251658240
 497:../Libraries/XMCLib/src/xmc_can.c ****                                 (((uint32_t) can_mo->can_data_length << CAN_MO_MOFCR_DLC_Pos) & (ui
 1618              	 .loc 2 497 0
 1619 0034 0A43     	 orrs r2,r2,r1
 1620 0036 1A60     	 str r2,[r3]
 499:../Libraries/XMCLib/src/xmc_can.c ****     /* Configure Data registers*/
 500:../Libraries/XMCLib/src/xmc_can.c ****     can_mo->can_mo_ptr->MODATAL = can_mo->can_data[0];
 1621              	 .loc 2 500 0
 1622 0038 7B68     	 ldr r3,[r7,#4]
 1623 003a 1B68     	 ldr r3,[r3]
 1624 003c 7A68     	 ldr r2,[r7,#4]
 1625 003e 1269     	 ldr r2,[r2,#16]
 1626 0040 1A61     	 str r2,[r3,#16]
 501:../Libraries/XMCLib/src/xmc_can.c ****     can_mo->can_mo_ptr->MODATAH = can_mo->can_data[1];
 1627              	 .loc 2 501 0
 1628 0042 7B68     	 ldr r3,[r7,#4]
 1629 0044 1B68     	 ldr r3,[r3]
 1630 0046 7A68     	 ldr r2,[r7,#4]
 1631 0048 5269     	 ldr r2,[r2,#20]
 1632 004a 5A61     	 str r2,[r3,#20]
 502:../Libraries/XMCLib/src/xmc_can.c ****     /* Reset RTSEL and Set MSGVAL ,TXEN0 and TXEN1 bits */
 503:../Libraries/XMCLib/src/xmc_can.c ****     can_mo->can_mo_ptr->MOCTR = (CAN_MO_MOCTR_SETNEWDAT_Msk| CAN_MO_MOCTR_SETMSGVAL_Msk |CAN_MO_MOC
 1633              	 .loc 2 503 0
 1634 004c 7B68     	 ldr r3,[r7,#4]
 1635 004e 1B68     	 ldr r3,[r3]
 1636 0050 064A     	 ldr r2,.L80
 1637 0052 DA61     	 str r2,[r3,#28]
 504:../Libraries/XMCLib/src/xmc_can.c ****     error = XMC_CAN_STATUS_SUCCESS;
 1638              	 .loc 2 504 0
 1639 0054 0023     	 movs r3,#0
 1640 0056 FB73     	 strb r3,[r7,#15]
 1641 0058 01E0     	 b .L78
 1642              	.L77:
 505:../Libraries/XMCLib/src/xmc_can.c ****   }
 506:../Libraries/XMCLib/src/xmc_can.c ****   else
 507:../Libraries/XMCLib/src/xmc_can.c ****   {
 508:../Libraries/XMCLib/src/xmc_can.c ****     error = XMC_CAN_STATUS_MO_NOT_ACCEPTABLE;
 1643              	 .loc 2 508 0
 1644 005a 0323     	 movs r3,#3
 1645 005c FB73     	 strb r3,[r7,#15]
 1646              	.L78:
 509:../Libraries/XMCLib/src/xmc_can.c ****   }
 510:../Libraries/XMCLib/src/xmc_can.c ****   return error;
 1647              	 .loc 2 510 0
 1648 005e FB7B     	 ldrb r3,[r7,#15]
 511:../Libraries/XMCLib/src/xmc_can.c **** }
 1649              	 .loc 2 511 0
 1650 0060 1846     	 mov r0,r3
 1651 0062 1437     	 adds r7,r7,#20
 1652              	.LCFI104:
 1653              	 .cfi_def_cfa_offset 4
 1654 0064 BD46     	 mov sp,r7
 1655              	.LCFI105:
 1656              	 .cfi_def_cfa_register 13
 1657              	 
 1658 0066 5DF8047B 	 ldr r7,[sp],#4
 1659              	.LCFI106:
 1660              	 .cfi_restore 7
 1661              	 .cfi_def_cfa_offset 0
 1662 006a 7047     	 bx lr
 1663              	.L81:
 1664              	 .align 2
 1665              	.L80:
 1666 006c 40002800 	 .word 2621504
 1667              	 .cfi_endproc
 1668              	.LFE220:
 1670              	 .section .text.XMC_CAN_MO_Transmit,"ax",%progbits
 1671              	 .align 2
 1672              	 .global XMC_CAN_MO_Transmit
 1673              	 .thumb
 1674              	 .thumb_func
 1676              	XMC_CAN_MO_Transmit:
 1677              	.LFB221:
 512:../Libraries/XMCLib/src/xmc_can.c **** 
 513:../Libraries/XMCLib/src/xmc_can.c **** /* This function is will put a transmit request to transmit message object */
 514:../Libraries/XMCLib/src/xmc_can.c **** XMC_CAN_STATUS_t XMC_CAN_MO_Transmit(const XMC_CAN_MO_t *const can_mo)
 515:../Libraries/XMCLib/src/xmc_can.c **** {
 1678              	 .loc 2 515 0
 1679              	 .cfi_startproc
 1680              	 
 1681              	 
 1682              	 
 1683 0000 80B4     	 push {r7}
 1684              	.LCFI107:
